ARM GAS  /tmp/ccwx636B.s 			page 1


   1              		.cpu cortex-m3
   2              		.eabi_attribute 20, 1
   3              		.eabi_attribute 21, 1
   4              		.eabi_attribute 23, 3
   5              		.eabi_attribute 24, 1
   6              		.eabi_attribute 25, 1
   7              		.eabi_attribute 26, 1
   8              		.eabi_attribute 30, 4
   9              		.eabi_attribute 34, 1
  10              		.eabi_attribute 18, 4
  11              		.file	"bootloader.cpp"
  12              		.text
  13              	.Ltext0:
  14              		.cfi_sections	.debug_frame
  15              		.align	1
  16              		.global	_Z19dfu_request_handlerP12TSetupPacketPiPPh
  17              		.arch armv7-m
  18              		.syntax unified
  19              		.thumb
  20              		.thumb_func
  21              		.fpu softvfp
  22              		.type	_Z19dfu_request_handlerP12TSetupPacketPiPPh, %function
  23              	_Z19dfu_request_handlerP12TSetupPacketPiPPh:
  24              	.LVL0:
  25              	.LFB5:
  26              		.file 1 "bootloader.cpp"
   1:bootloader.cpp **** /*
   2:bootloader.cpp ****  * Copyright 2010 Michael Ossmann
   3:bootloader.cpp ****  *
   4:bootloader.cpp ****  * This file is part of Project Ubertooth.
   5:bootloader.cpp ****  *
   6:bootloader.cpp ****  * This program is free software; you can redistribute it and/or modify
   7:bootloader.cpp ****  * it under the terms of the GNU General Public License as published by
   8:bootloader.cpp ****  * the Free Software Foundation; either version 2, or (at your option)
   9:bootloader.cpp ****  * any later version.
  10:bootloader.cpp ****  *
  11:bootloader.cpp ****  * This program is distributed in the hope that it will be useful,
  12:bootloader.cpp ****  * but WITHOUT ANY WARRANTY; without even the implied warranty of
  13:bootloader.cpp ****  * MERCHANTABILITY or FITNESS FOR A PARTICULAR PURPOSE.  See the
  14:bootloader.cpp ****  * GNU General Public License for more details.
  15:bootloader.cpp ****  *
  16:bootloader.cpp ****  * You should have received a copy of the GNU General Public License
  17:bootloader.cpp ****  * along with this program; see the file COPYING.  If not, write to
  18:bootloader.cpp ****  * the Free Software Foundation, Inc., 51 Franklin Street,
  19:bootloader.cpp ****  * Boston, MA 02110-1301, USA.
  20:bootloader.cpp ****  */
  21:bootloader.cpp **** 
  22:bootloader.cpp **** /*
  23:bootloader.cpp **** 	LPCUSB, an USB device driver for LPC microcontrollers
  24:bootloader.cpp **** 	Copyright (C) 2006 Bertrik Sikken (bertrik@sikken.nl)
  25:bootloader.cpp **** 
  26:bootloader.cpp **** 	Redistribution and use in source and binary forms, with or without
  27:bootloader.cpp **** 	modification, are permitted provided that the following conditions are met:
  28:bootloader.cpp **** 
  29:bootloader.cpp **** 	1. Redistributions of source code must retain the above copyright
  30:bootloader.cpp **** 	   notice, this list of conditions and the following disclaimer.
  31:bootloader.cpp **** 	2. Redistributions in binary form must reproduce the above copyright
ARM GAS  /tmp/ccwx636B.s 			page 2


  32:bootloader.cpp **** 	   notice, this list of conditions and the following disclaimer in the
  33:bootloader.cpp **** 	   documentation and/or other materials provided with the distribution.
  34:bootloader.cpp **** 	3. The name of the author may not be used to endorse or promote products
  35:bootloader.cpp **** 	   derived from this software without specific prior written permission.
  36:bootloader.cpp **** 
  37:bootloader.cpp **** 	THIS SOFTWARE IS PROVIDED BY THE AUTHOR ``AS IS'' AND ANY EXPRESS OR
  38:bootloader.cpp **** 	IMPLIED WARRANTIES, INCLUDING, BUT NOT LIMITED TO, THE IMPLIED WARRANTIES
  39:bootloader.cpp **** 	OF MERCHANTABILITY AND FITNESS FOR A PARTICULAR PURPOSE ARE DISCLAIMED.
  40:bootloader.cpp **** 	IN NO EVENT SHALL THE AUTHOR BE LIABLE FOR ANY DIRECT, INDIRECT,
  41:bootloader.cpp **** 	INCIDENTAL, SPECIAL, EXEMPLARY, OR CONSEQUENTIAL DAMAGES (INCLUDING, BUT
  42:bootloader.cpp **** 	NOT LIMITED TO, PROCUREMENT OF SUBSTITUTE GOODS OR SERVICES; LOSS OF USE,
  43:bootloader.cpp **** 	DATA, OR PROFITS; OR BUSINESS INTERRUPTION) HOWEVER CAUSED AND ON ANY
  44:bootloader.cpp **** 	THEORY OF LIABILITY, WHETHER IN CONTRACT, STRICT LIABILITY, OR TORT
  45:bootloader.cpp **** 	(INCLUDING NEGLIGENCE OR OTHERWISE) ARISING IN ANY WAY OUT OF THE USE OF
  46:bootloader.cpp **** 	THIS SOFTWARE, EVEN IF ADVISED OF THE POSSIBILITY OF SUCH DAMAGE.
  47:bootloader.cpp **** */
  48:bootloader.cpp **** 
  49:bootloader.cpp **** #include <stdint.h>
  50:bootloader.cpp **** 
  51:bootloader.cpp **** extern "C" {
  52:bootloader.cpp **** #include <ubertooth.h>
  53:bootloader.cpp **** #include "usbapi.h"
  54:bootloader.cpp **** #include "usbhw_lpc.h"
  55:bootloader.cpp **** }
  56:bootloader.cpp **** 
  57:bootloader.cpp **** #include "dfu.h"
  58:bootloader.cpp **** 
  59:bootloader.cpp **** #define DFU_TIMEOUT 1572864
  60:bootloader.cpp **** 
  61:bootloader.cpp **** #define MAX_PACKET_SIZE	64
  62:bootloader.cpp **** 
  63:bootloader.cpp **** #define LE_WORD(x)		((x)&0xFF),((x)>>8)
  64:bootloader.cpp **** 
  65:bootloader.cpp **** /*
  66:bootloader.cpp ****  * Ubertooth Zero:
  67:bootloader.cpp ****  *
  68:bootloader.cpp ****  * pin expansion connector (J1) pin 13 which is GPIO P2.7, configure
  69:bootloader.cpp ****  * pull-up and check if it has been jumpered to ground (pin 1).
  70:bootloader.cpp ****  *
  71:bootloader.cpp ****  * On Ubertooth One and ToorCon 13 Badge:
  72:bootloader.cpp ****  *
  73:bootloader.cpp ****  * expansion connector (P4) pin 3 which is GPIO P0.22, same
  74:bootloader.cpp ****  * configuration, ground is at pin 1.
  75:bootloader.cpp ****  */
  76:bootloader.cpp **** 
  77:bootloader.cpp **** #ifdef UBERTOOTH_ZERO
  78:bootloader.cpp **** #define ENTRY_PIN (!(FIO2PIN & (1 << 7)))
  79:bootloader.cpp **** #endif
  80:bootloader.cpp **** #if defined UBERTOOTH_ONE || defined TC13BADGE
  81:bootloader.cpp **** #define ENTRY_PIN (!(FIO0PIN & (1 << 22)))
  82:bootloader.cpp **** #endif
  83:bootloader.cpp **** 
  84:bootloader.cpp **** #ifdef UBERTOOTH_ZERO
  85:bootloader.cpp **** #define ID_VENDOR 0x1D50
  86:bootloader.cpp **** #define ID_PRODUCT 0x6001
  87:bootloader.cpp **** #elif defined UBERTOOTH_ONE
  88:bootloader.cpp **** #define ID_VENDOR 0x1D50
ARM GAS  /tmp/ccwx636B.s 			page 3


  89:bootloader.cpp **** #define ID_PRODUCT 0x6003
  90:bootloader.cpp **** #elif defined TC13BADGE
  91:bootloader.cpp **** #define ID_VENDOR 0xFFFF
  92:bootloader.cpp **** #define ID_PRODUCT 0x0004
  93:bootloader.cpp **** #else
  94:bootloader.cpp **** #define ID_VENDOR 0xFFFF
  95:bootloader.cpp **** #define ID_PRODUCT 0x0004
  96:bootloader.cpp **** #endif
  97:bootloader.cpp **** 
  98:bootloader.cpp **** static uint8_t dfu_descriptors[] = {
  99:bootloader.cpp **** 
 100:bootloader.cpp **** /* Device descriptor */
 101:bootloader.cpp **** 	0x12,
 102:bootloader.cpp **** 	DESC_DEVICE,
 103:bootloader.cpp **** 	LE_WORD(0x0200),		// bcdUSB
 104:bootloader.cpp **** 	0x00,              		// bDeviceClass
 105:bootloader.cpp **** 	0x00,              		// bDeviceSubClass
 106:bootloader.cpp **** 	0x00,              		// bDeviceProtocol
 107:bootloader.cpp **** 	MAX_PACKET_SIZE0,  		// bMaxPacketSize
 108:bootloader.cpp **** 	LE_WORD(ID_VENDOR),		// idVendor
 109:bootloader.cpp **** 	LE_WORD(ID_PRODUCT),	// idProduct
 110:bootloader.cpp **** 	LE_WORD(0x0100),		// bcdDevice
 111:bootloader.cpp **** 	0x01,              		// iManufacturer
 112:bootloader.cpp **** 	0x02,              		// iProduct
 113:bootloader.cpp **** 	0x00,              		// iSerialNumber
 114:bootloader.cpp **** 	0x01,              		// bNumConfigurations
 115:bootloader.cpp **** 
 116:bootloader.cpp **** // configuration
 117:bootloader.cpp **** 	0x09,
 118:bootloader.cpp **** 	DESC_CONFIGURATION,
 119:bootloader.cpp **** 	LE_WORD(0x1B),  		// wTotalLength
 120:bootloader.cpp **** 	0x01,  				// bNumInterfaces
 121:bootloader.cpp **** 	0x01,  				// bConfigurationValue
 122:bootloader.cpp **** 	0x00,  				// iConfiguration
 123:bootloader.cpp **** 	0x80,  				// bmAttributes
 124:bootloader.cpp **** 	0x32,  				// bMaxPower
 125:bootloader.cpp **** 
 126:bootloader.cpp **** // interface
 127:bootloader.cpp **** 	0x09,
 128:bootloader.cpp **** 	DESC_INTERFACE,
 129:bootloader.cpp **** 	0x00,  		 		// bInterfaceNumber
 130:bootloader.cpp **** 	0x00,   			// bAlternateSetting
 131:bootloader.cpp **** 	0x00,   			// bNumEndPoints
 132:bootloader.cpp **** 	0xFE,   			// bInterfaceClass
 133:bootloader.cpp **** 	0x01,   			// bInterfaceSubClass
 134:bootloader.cpp **** 	0x02,   			// bInterfaceProtocol
 135:bootloader.cpp **** 	0x00,   			// iInterface
 136:bootloader.cpp **** 
 137:bootloader.cpp **** // DFU Functional Descriptor
 138:bootloader.cpp **** 	0x09,
 139:bootloader.cpp **** 	DESC_DFU_FUNCTIONAL,
 140:bootloader.cpp **** 	DFU::WILL_DETACH | DFU::MANIFESTATION_TOLERANT | DFU::CAN_UPLOAD | DFU::CAN_DNLOAD,		// bmAttribut
 141:bootloader.cpp **** 	LE_WORD(DFU::detach_timeout_ms),// wDetachTimeOut
 142:bootloader.cpp **** 	LE_WORD(DFU::transfer_size),	// wTransferSize
 143:bootloader.cpp **** 	LE_WORD(0x0101),		// bcdDFUVersion
 144:bootloader.cpp **** 
 145:bootloader.cpp **** // string descriptors
ARM GAS  /tmp/ccwx636B.s 			page 4


 146:bootloader.cpp **** 	0x04,
 147:bootloader.cpp **** 	DESC_STRING,
 148:bootloader.cpp **** 	LE_WORD(0x0409),
 149:bootloader.cpp **** 
 150:bootloader.cpp **** 	// manufacturer string
 151:bootloader.cpp **** 	0x5C,
 152:bootloader.cpp **** 	DESC_STRING,
 153:bootloader.cpp **** 	'h', 0, 't', 0, 't', 0, 'p', 0, ':', 0, '/', 0, '/', 0, 'g', 0,
 154:bootloader.cpp **** 	'i', 0, 't', 0, 'h', 0, 'u', 0, 'b', 0, '.', 0, 'c', 0, 'o', 0,
 155:bootloader.cpp **** 	'm', 0, '/', 0, 'g', 0, 'r', 0, 'e', 0, 'a', 0, 't', 0, 's', 0,
 156:bootloader.cpp **** 	'c', 0, 'o', 0, 't', 0, 't', 0, 'g', 0, 'a', 0, 'd', 0, 'g', 0,
 157:bootloader.cpp **** 	'e', 0, 't', 0, 's', 0, '/', 0, 'u', 0, 'b', 0, 'e', 0, 'r', 0,
 158:bootloader.cpp **** 	't', 0, 'o', 0, 'o', 0, 't', 0, 'h', 0,
 159:bootloader.cpp **** 
 160:bootloader.cpp **** 	// product string
 161:bootloader.cpp **** 	0x1E,
 162:bootloader.cpp **** 	DESC_STRING,
 163:bootloader.cpp **** 	'u', 0, 's', 0, 'b', 0, '_', 0, 'b', 0, 'o', 0, 'o', 0, 't', 0, 'l', 0, 'o', 0,
 164:bootloader.cpp **** 	'a', 0, 'd', 0, 'e', 0, 'r', 0,
 165:bootloader.cpp **** 
 166:bootloader.cpp **** 	// terminator
 167:bootloader.cpp **** 	0
 168:bootloader.cpp **** };
 169:bootloader.cpp **** 
 170:bootloader.cpp **** static Flash flash;
 171:bootloader.cpp **** static DFU dfu(flash);
 172:bootloader.cpp **** static uint8_t dfu_buffer[DFU::transfer_size];
 173:bootloader.cpp **** static uint32_t count = 0;
 174:bootloader.cpp **** static bool use_timeout = false;
 175:bootloader.cpp **** 
 176:bootloader.cpp **** BOOL dfu_request_handler(TSetupPacket *pSetup, int *piLen, u8 **ppbData) {
  27              		.loc 1 176 74 view -0
  28              		.cfi_startproc
  29              		@ args = 0, pretend = 0, frame = 0
  30              		@ frame_needed = 0, uses_anonymous_args = 0
 177:bootloader.cpp ****     return dfu.request_handler(pSetup, reinterpret_cast<uint32_t*>(piLen), ppbData) ? TRUE : FALSE;
  31              		.loc 1 177 5 view .LVU1
 176:bootloader.cpp ****     return dfu.request_handler(pSetup, reinterpret_cast<uint32_t*>(piLen), ppbData) ? TRUE : FALSE;
  32              		.loc 1 176 74 is_stmt 0 view .LVU2
  33 0000 08B5     		push	{r3, lr}
  34              	.LCFI0:
  35              		.cfi_def_cfa_offset 8
  36              		.cfi_offset 3, -8
  37              		.cfi_offset 14, -4
 176:bootloader.cpp ****     return dfu.request_handler(pSetup, reinterpret_cast<uint32_t*>(piLen), ppbData) ? TRUE : FALSE;
  38              		.loc 1 176 74 view .LVU3
  39 0002 1346     		mov	r3, r2
  40              		.loc 1 177 31 view .LVU4
  41 0004 0A46     		mov	r2, r1
  42              	.LVL1:
  43              		.loc 1 177 31 view .LVU5
  44 0006 0146     		mov	r1, r0
  45              	.LVL2:
  46              		.loc 1 177 31 view .LVU6
  47 0008 0148     		ldr	r0, .L2
  48              	.LVL3:
  49              		.loc 1 177 31 view .LVU7
ARM GAS  /tmp/ccwx636B.s 			page 5


  50 000a FFF7FEFF 		bl	_ZN3DFU15request_handlerEP12TSetupPacketPmPPh
  51              	.LVL4:
 178:bootloader.cpp **** }
  52              		.loc 1 178 1 view .LVU8
  53 000e 08BD     		pop	{r3, pc}
  54              	.L3:
  55              		.align	2
  56              	.L2:
  57 0010 00000000 		.word	.LANCHOR0
  58              		.cfi_endproc
  59              	.LFE5:
  60              		.size	_Z19dfu_request_handlerP12TSetupPacketPiPPh, .-_Z19dfu_request_handlerP12TSetupPacketPiPPh
  61              		.align	1
  62              		.global	_Z19bootloader_usb_initv
  63              		.syntax unified
  64              		.thumb
  65              		.thumb_func
  66              		.fpu softvfp
  67              		.type	_Z19bootloader_usb_initv, %function
  68              	_Z19bootloader_usb_initv:
  69              	.LFB6:
 179:bootloader.cpp **** 
 180:bootloader.cpp **** int bootloader_usb_init()
 181:bootloader.cpp **** {
  70              		.loc 1 181 1 is_stmt 1 view -0
  71              		.cfi_startproc
  72              		@ args = 0, pretend = 0, frame = 0
  73              		@ frame_needed = 0, uses_anonymous_args = 0
 182:bootloader.cpp **** 	// initialise stack
 183:bootloader.cpp **** 	USBInit();
  74              		.loc 1 183 2 view .LVU10
 181:bootloader.cpp **** 	// initialise stack
  75              		.loc 1 181 1 is_stmt 0 view .LVU11
  76 0014 08B5     		push	{r3, lr}
  77              	.LCFI1:
  78              		.cfi_def_cfa_offset 8
  79              		.cfi_offset 3, -8
  80              		.cfi_offset 14, -4
  81              		.loc 1 183 9 view .LVU12
  82 0016 FFF7FEFF 		bl	USBInit
  83              	.LVL5:
 184:bootloader.cpp **** 
 185:bootloader.cpp **** 	// register device descriptors
 186:bootloader.cpp **** 	USBRegisterDescriptors(dfu_descriptors);
  84              		.loc 1 186 2 is_stmt 1 view .LVU13
  85              		.loc 1 186 24 is_stmt 0 view .LVU14
  86 001a 0648     		ldr	r0, .L5
  87 001c FFF7FEFF 		bl	USBRegisterDescriptors
  88              	.LVL6:
 187:bootloader.cpp **** 
 188:bootloader.cpp **** 	// override standard request handler
 189:bootloader.cpp **** 	USBRegisterRequestHandler(REQTYPE_TYPE_CLASS, dfu_request_handler, dfu_buffer);
  89              		.loc 1 189 2 is_stmt 1 view .LVU15
  90              		.loc 1 189 27 is_stmt 0 view .LVU16
  91 0020 054A     		ldr	r2, .L5+4
  92 0022 0649     		ldr	r1, .L5+8
  93 0024 0120     		movs	r0, #1
ARM GAS  /tmp/ccwx636B.s 			page 6


  94 0026 FFF7FEFF 		bl	USBRegisterRequestHandler
  95              	.LVL7:
 190:bootloader.cpp **** 
 191:bootloader.cpp **** 	// enable USB interrupts
 192:bootloader.cpp **** 	//ISER0 |= ISER0_ISE_USB;
 193:bootloader.cpp **** 
 194:bootloader.cpp **** 	// connect to bus
 195:bootloader.cpp **** 	USBHwConnect(TRUE);
  96              		.loc 1 195 2 is_stmt 1 view .LVU17
  97              		.loc 1 195 14 is_stmt 0 view .LVU18
  98 002a 0120     		movs	r0, #1
  99 002c FFF7FEFF 		bl	USBHwConnect
 100              	.LVL8:
 196:bootloader.cpp **** 
 197:bootloader.cpp **** 	return 0;
 101              		.loc 1 197 2 is_stmt 1 view .LVU19
 198:bootloader.cpp **** }
 102              		.loc 1 198 1 is_stmt 0 view .LVU20
 103 0030 0020     		movs	r0, #0
 104 0032 08BD     		pop	{r3, pc}
 105              	.L6:
 106              		.align	2
 107              	.L5:
 108 0034 00000000 		.word	.LANCHOR1
 109 0038 08000000 		.word	.LANCHOR0+8
 110 003c 00000000 		.word	_Z19dfu_request_handlerP12TSetupPacketPiPPh
 111              		.cfi_endproc
 112              	.LFE6:
 113              		.size	_Z19bootloader_usb_initv, .-_Z19bootloader_usb_initv
 114              		.align	1
 115              		.global	_Z20bootloader_usb_closev
 116              		.syntax unified
 117              		.thumb
 118              		.thumb_func
 119              		.fpu softvfp
 120              		.type	_Z20bootloader_usb_closev, %function
 121              	_Z20bootloader_usb_closev:
 122              	.LFB7:
 199:bootloader.cpp **** 
 200:bootloader.cpp **** void bootloader_usb_close() {
 123              		.loc 1 200 29 is_stmt 1 view -0
 124              		.cfi_startproc
 125              		@ args = 0, pretend = 0, frame = 0
 126              		@ frame_needed = 0, uses_anonymous_args = 0
 127              		@ link register save eliminated.
 201:bootloader.cpp ****     USBHwConnect(FALSE);
 128              		.loc 1 201 5 view .LVU22
 129              		.loc 1 201 17 is_stmt 0 view .LVU23
 130 0040 0020     		movs	r0, #0
 131 0042 FFF7FEBF 		b	USBHwConnect
 132              	.LVL9:
 133              		.cfi_endproc
 134              	.LFE7:
 135              		.size	_Z20bootloader_usb_closev, .-_Z20bootloader_usb_closev
 136              		.align	1
 137              		.global	_Z7leds_onv
 138              		.syntax unified
ARM GAS  /tmp/ccwx636B.s 			page 7


 139              		.thumb
 140              		.thumb_func
 141              		.fpu softvfp
 142              		.type	_Z7leds_onv, %function
 143              	_Z7leds_onv:
 144              	.LFB8:
 202:bootloader.cpp **** }
 203:bootloader.cpp **** 
 204:bootloader.cpp **** void leds_on() {
 145              		.loc 1 204 16 is_stmt 1 view -0
 146              		.cfi_startproc
 147              		@ args = 0, pretend = 0, frame = 0
 148              		@ frame_needed = 0, uses_anonymous_args = 0
 149              		@ link register save eliminated.
 205:bootloader.cpp **** 		TXLED_SET;
 150              		.loc 1 205 3 view .LVU25
 151 0046 4FF48072 		mov	r2, #256
 152 004a 034B     		ldr	r3, .L9
 153 004c 1A60     		str	r2, [r3]
 206:bootloader.cpp **** 		RXLED_SET;
 154              		.loc 1 206 3 view .LVU26
 155 004e 1022     		movs	r2, #16
 156 0050 1A60     		str	r2, [r3]
 207:bootloader.cpp **** 		USRLED_SET;
 157              		.loc 1 207 3 view .LVU27
 158 0052 0222     		movs	r2, #2
 159 0054 1A60     		str	r2, [r3]
 208:bootloader.cpp **** }
 160              		.loc 1 208 1 is_stmt 0 view .LVU28
 161 0056 7047     		bx	lr
 162              	.L10:
 163              		.align	2
 164              	.L9:
 165 0058 38C00920 		.word	537509944
 166              		.cfi_endproc
 167              	.LFE8:
 168              		.size	_Z7leds_onv, .-_Z7leds_onv
 169              		.align	1
 170              		.global	_Z8leds_offv
 171              		.syntax unified
 172              		.thumb
 173              		.thumb_func
 174              		.fpu softvfp
 175              		.type	_Z8leds_offv, %function
 176              	_Z8leds_offv:
 177              	.LFB9:
 209:bootloader.cpp **** 
 210:bootloader.cpp **** void leds_off() {
 178              		.loc 1 210 17 is_stmt 1 view -0
 179              		.cfi_startproc
 180              		@ args = 0, pretend = 0, frame = 0
 181              		@ frame_needed = 0, uses_anonymous_args = 0
 182              		@ link register save eliminated.
 211:bootloader.cpp **** 		TXLED_CLR;
 183              		.loc 1 211 3 view .LVU30
 184 005c 4FF48072 		mov	r2, #256
 185 0060 034B     		ldr	r3, .L12
ARM GAS  /tmp/ccwx636B.s 			page 8


 186 0062 1A60     		str	r2, [r3]
 212:bootloader.cpp **** 		RXLED_CLR;
 187              		.loc 1 212 3 view .LVU31
 188 0064 1022     		movs	r2, #16
 189 0066 1A60     		str	r2, [r3]
 213:bootloader.cpp **** 		USRLED_CLR;
 190              		.loc 1 213 3 view .LVU32
 191 0068 0222     		movs	r2, #2
 192 006a 1A60     		str	r2, [r3]
 214:bootloader.cpp **** }
 193              		.loc 1 214 1 is_stmt 0 view .LVU33
 194 006c 7047     		bx	lr
 195              	.L13:
 196 006e 00BF     		.align	2
 197              	.L12:
 198 0070 3CC00920 		.word	537509948
 199              		.cfi_endproc
 200              	.LFE9:
 201              		.size	_Z8leds_offv, .-_Z8leds_offv
 202              		.align	1
 203              		.global	_Z11update_ledsv
 204              		.syntax unified
 205              		.thumb
 206              		.thumb_func
 207              		.fpu softvfp
 208              		.type	_Z11update_ledsv, %function
 209              	_Z11update_ledsv:
 210              	.LFB10:
 215:bootloader.cpp **** 
 216:bootloader.cpp **** /* chasing pattern indicates bootloader activity */
 217:bootloader.cpp **** void update_leds() {
 211              		.loc 1 217 20 is_stmt 1 view -0
 212              		.cfi_startproc
 213              		@ args = 0, pretend = 0, frame = 0
 214              		@ frame_needed = 0, uses_anonymous_args = 0
 215              		@ link register save eliminated.
 218:bootloader.cpp **** 	count += 1;
 216              		.loc 1 218 2 view .LVU35
 219:bootloader.cpp **** 	const uint32_t led_state = (count >> 16) % 6;
 217              		.loc 1 219 17 is_stmt 0 view .LVU36
 218 0074 0621     		movs	r1, #6
 218:bootloader.cpp **** 	count += 1;
 219              		.loc 1 218 8 view .LVU37
 220 0076 144A     		ldr	r2, .L25
 221 0078 D2F80831 		ldr	r3, [r2, #264]
 222 007c 0133     		adds	r3, r3, #1
 223 007e C2F80831 		str	r3, [r2, #264]
 224              		.loc 1 219 2 is_stmt 1 view .LVU38
 225              	.LVL10:
 220:bootloader.cpp **** 	switch (led_state) {
 226              		.loc 1 220 2 view .LVU39
 219:bootloader.cpp **** 	const uint32_t led_state = (count >> 16) % 6;
 227              		.loc 1 219 36 is_stmt 0 view .LVU40
 228 0082 1B0C     		lsrs	r3, r3, #16
 229              	.LVL11:
 219:bootloader.cpp **** 	const uint32_t led_state = (count >> 16) % 6;
 230              		.loc 1 219 17 view .LVU41
ARM GAS  /tmp/ccwx636B.s 			page 9


 231 0084 B3FBF1F2 		udiv	r2, r3, r1
 232              	.LVL12:
 219:bootloader.cpp **** 	const uint32_t led_state = (count >> 16) % 6;
 233              		.loc 1 219 17 view .LVU42
 234 0088 01FB1233 		mls	r3, r1, r2, r3
 235 008c 013B     		subs	r3, r3, #1
 236 008e 4FF48072 		mov	r2, #256
 237 0092 1021     		movs	r1, #16
 238 0094 042B     		cmp	r3, #4
 239 0096 10D8     		bhi	.L18
 240 0098 DFE803F0 		tbb	[pc, r3]
 241              	.L17:
 242 009c 03       		.byte	(.L21-.L17)/2
 243 009d 09       		.byte	(.L20-.L17)/2
 244 009e 03       		.byte	(.L21-.L17)/2
 245 009f 0F       		.byte	(.L18-.L17)/2
 246 00a0 14       		.byte	(.L16-.L17)/2
 247 00a1 00       		.p2align 1
 248              	.L21:
 221:bootloader.cpp **** 	case 0:
 222:bootloader.cpp **** 		TXLED_SET;
 223:bootloader.cpp **** 		RXLED_CLR;
 224:bootloader.cpp **** 		USRLED_CLR;
 225:bootloader.cpp **** 		break;
 226:bootloader.cpp **** 	case 1:
 249              		.loc 1 226 2 is_stmt 1 view .LVU43
 227:bootloader.cpp **** 		TXLED_SET;
 250              		.loc 1 227 3 view .LVU44
 251 00a2 0A4B     		ldr	r3, .L25+4
 252 00a4 1A60     		str	r2, [r3]
 228:bootloader.cpp **** 		RXLED_SET;
 253              		.loc 1 228 3 view .LVU45
 254 00a6 1960     		str	r1, [r3]
 255              	.L23:
 229:bootloader.cpp **** 		USRLED_CLR;
 256              		.loc 1 229 3 view .LVU46
 257 00a8 0222     		movs	r2, #2
 258 00aa 5A60     		str	r2, [r3, #4]
 230:bootloader.cpp **** 		break;
 259              		.loc 1 230 3 view .LVU47
 260 00ac 7047     		bx	lr
 261              	.L20:
 231:bootloader.cpp **** 	case 2:
 262              		.loc 1 231 2 view .LVU48
 232:bootloader.cpp **** 		TXLED_SET;
 263              		.loc 1 232 3 view .LVU49
 264 00ae 074B     		ldr	r3, .L25+4
 265              	.L24:
 266              	.LBB6:
 267              	.LBB7:
 233:bootloader.cpp **** 		RXLED_SET;
 234:bootloader.cpp **** 		USRLED_SET;
 235:bootloader.cpp **** 		break;
 236:bootloader.cpp **** 	case 3:
 237:bootloader.cpp **** 		TXLED_SET;
 238:bootloader.cpp **** 		RXLED_SET;
 239:bootloader.cpp **** 		USRLED_CLR;
ARM GAS  /tmp/ccwx636B.s 			page 10


 240:bootloader.cpp **** 		break;
 241:bootloader.cpp **** 	case 4:
 242:bootloader.cpp **** 		TXLED_SET;
 243:bootloader.cpp **** 		RXLED_CLR;
 244:bootloader.cpp **** 		USRLED_CLR;
 245:bootloader.cpp **** 		break;
 246:bootloader.cpp **** 	case 5:
 247:bootloader.cpp **** 		TXLED_CLR;
 268              		.loc 1 247 3 is_stmt 0 view .LVU50
 269 00b0 1A60     		str	r2, [r3]
 270              	.LVL13:
 248:bootloader.cpp **** 		RXLED_CLR;
 271              		.loc 1 248 3 is_stmt 1 view .LVU51
 249:bootloader.cpp **** 		USRLED_CLR;
 272              		.loc 1 249 3 is_stmt 0 view .LVU52
 273 00b2 0222     		movs	r2, #2
 248:bootloader.cpp **** 		RXLED_CLR;
 274              		.loc 1 248 3 view .LVU53
 275 00b4 1960     		str	r1, [r3]
 276              		.loc 1 249 3 is_stmt 1 view .LVU54
 277 00b6 1A60     		str	r2, [r3]
 250:bootloader.cpp **** 		break;
 278              		.loc 1 250 3 view .LVU55
 279              	.LBE7:
 280              	.LBE6:
 251:bootloader.cpp **** 	}
 252:bootloader.cpp **** }
 281              		.loc 1 252 1 is_stmt 0 view .LVU56
 282 00b8 7047     		bx	lr
 283              	.LVL14:
 284              	.L18:
 241:bootloader.cpp **** 		TXLED_SET;
 285              		.loc 1 241 2 is_stmt 1 view .LVU57
 242:bootloader.cpp **** 		RXLED_CLR;
 286              		.loc 1 242 3 view .LVU58
 287 00ba 044B     		ldr	r3, .L25+4
 288 00bc 1A60     		str	r2, [r3]
 243:bootloader.cpp **** 		USRLED_CLR;
 289              		.loc 1 243 3 view .LVU59
 290 00be 1022     		movs	r2, #16
 291 00c0 5A60     		str	r2, [r3, #4]
 244:bootloader.cpp **** 		break;
 292              		.loc 1 244 3 view .LVU60
 293 00c2 F1E7     		b	.L23
 294              	.L16:
 295              	.LBB9:
 296              	.LBI6:
 217:bootloader.cpp **** 	count += 1;
 297              		.loc 1 217 6 view .LVU61
 298              	.LBB8:
 246:bootloader.cpp **** 		TXLED_CLR;
 299              		.loc 1 246 2 view .LVU62
 247:bootloader.cpp **** 		RXLED_CLR;
 300              		.loc 1 247 3 view .LVU63
 301 00c4 024B     		ldr	r3, .L25+8
 302 00c6 F3E7     		b	.L24
 303              	.L26:
ARM GAS  /tmp/ccwx636B.s 			page 11


 304              		.align	2
 305              	.L25:
 306 00c8 00000000 		.word	.LANCHOR0
 307 00cc 38C00920 		.word	537509944
 308 00d0 3CC00920 		.word	537509948
 309              	.LBE8:
 310              	.LBE9:
 311              		.cfi_endproc
 312              	.LFE10:
 313              		.size	_Z11update_ledsv, .-_Z11update_ledsv
 314              		.align	1
 315              		.syntax unified
 316              		.thumb
 317              		.thumb_func
 318              		.fpu softvfp
 319              		.type	_ZL14run_bootloaderv, %function
 320              	_ZL14run_bootloaderv:
 321              	.LFB11:
 253:bootloader.cpp **** 
 254:bootloader.cpp **** static void run_bootloader()
 255:bootloader.cpp **** {
 322              		.loc 1 255 1 view -0
 323              		.cfi_startproc
 324              		@ args = 0, pretend = 0, frame = 0
 325              		@ frame_needed = 0, uses_anonymous_args = 0
 256:bootloader.cpp **** 	leds_on();
 326              		.loc 1 256 2 view .LVU65
 255:bootloader.cpp **** 	leds_on();
 327              		.loc 1 255 1 is_stmt 0 view .LVU66
 328 00d4 10B5     		push	{r4, lr}
 329              	.LCFI2:
 330              		.cfi_def_cfa_offset 8
 331              		.cfi_offset 4, -8
 332              		.cfi_offset 14, -4
 333              		.loc 1 256 9 view .LVU67
 334 00d6 FFF7FEFF 		bl	_Z7leds_onv
 335              	.LVL15:
 257:bootloader.cpp **** 	bootloader_usb_init();
 336              		.loc 1 257 2 is_stmt 1 view .LVU68
 337              		.loc 1 257 21 is_stmt 0 view .LVU69
 338 00da FFF7FEFF 		bl	_Z19bootloader_usb_initv
 339              	.LVL16:
 258:bootloader.cpp **** 
 259:bootloader.cpp **** 	while( dfu.in_dfu_mode() ) {
 340              		.loc 1 259 24 view .LVU70
 341 00de 0F4C     		ldr	r4, .L36
 342              	.L29:
 343              		.loc 1 259 2 is_stmt 1 view .LVU71
 344              		.loc 1 259 24 view .LVU72
 345 00e0 0E48     		ldr	r0, .L36
 346 00e2 FFF7FEFF 		bl	_ZNK3DFU11in_dfu_modeEv
 347              	.LVL17:
 348 00e6 28B9     		cbnz	r0, .L28
 349              	.L31:
 260:bootloader.cpp **** 		USBHwISR();
 261:bootloader.cpp **** 		update_leds();
 262:bootloader.cpp **** 		if (use_timeout && dfu.dfu_virgin() && (count > DFU_TIMEOUT))
ARM GAS  /tmp/ccwx636B.s 			page 12


 263:bootloader.cpp **** 			break;
 264:bootloader.cpp **** 	}
 265:bootloader.cpp **** 
 266:bootloader.cpp **** 	bootloader_usb_close();
 350              		.loc 1 266 2 view .LVU73
 351              		.loc 1 266 22 is_stmt 0 view .LVU74
 352 00e8 FFF7FEFF 		bl	_Z20bootloader_usb_closev
 353              	.LVL18:
 267:bootloader.cpp **** 	leds_off();
 354              		.loc 1 267 2 is_stmt 1 view .LVU75
 268:bootloader.cpp **** }
 355              		.loc 1 268 1 is_stmt 0 view .LVU76
 356 00ec BDE81040 		pop	{r4, lr}
 357              	.LCFI3:
 358              		.cfi_remember_state
 359              		.cfi_restore 14
 360              		.cfi_restore 4
 361              		.cfi_def_cfa_offset 0
 267:bootloader.cpp **** 	leds_off();
 362              		.loc 1 267 10 view .LVU77
 363 00f0 FFF7FEBF 		b	_Z8leds_offv
 364              	.LVL19:
 365              	.L28:
 366              	.LCFI4:
 367              		.cfi_restore_state
 260:bootloader.cpp **** 		USBHwISR();
 368              		.loc 1 260 3 is_stmt 1 view .LVU78
 260:bootloader.cpp **** 		USBHwISR();
 369              		.loc 1 260 11 is_stmt 0 view .LVU79
 370 00f4 FFF7FEFF 		bl	USBHwISR
 371              	.LVL20:
 261:bootloader.cpp **** 		if (use_timeout && dfu.dfu_virgin() && (count > DFU_TIMEOUT))
 372              		.loc 1 261 3 is_stmt 1 view .LVU80
 261:bootloader.cpp **** 		if (use_timeout && dfu.dfu_virgin() && (count > DFU_TIMEOUT))
 373              		.loc 1 261 14 is_stmt 0 view .LVU81
 374 00f8 FFF7FEFF 		bl	_Z11update_ledsv
 375              	.LVL21:
 262:bootloader.cpp **** 			break;
 376              		.loc 1 262 3 is_stmt 1 view .LVU82
 262:bootloader.cpp **** 			break;
 377              		.loc 1 262 39 is_stmt 0 view .LVU83
 378 00fc 94F80C31 		ldrb	r3, [r4, #268]	@ zero_extendqisi2
 379 0100 002B     		cmp	r3, #0
 380 0102 EDD0     		beq	.L29
 262:bootloader.cpp **** 			break;
 381              		.loc 1 262 36 discriminator 1 view .LVU84
 382 0104 2046     		mov	r0, r4
 383 0106 FFF7FEFF 		bl	_ZNK3DFU10dfu_virginEv
 384              	.LVL22:
 262:bootloader.cpp **** 			break;
 385              		.loc 1 262 19 discriminator 1 view .LVU85
 386 010a 0028     		cmp	r0, #0
 387 010c E8D0     		beq	.L29
 262:bootloader.cpp **** 			break;
 388              		.loc 1 262 39 discriminator 3 view .LVU86
 389 010e D4F80831 		ldr	r3, [r4, #264]
 390 0112 B3F5C01F 		cmp	r3, #1572864
ARM GAS  /tmp/ccwx636B.s 			page 13


 391 0116 E3D9     		bls	.L29
 392 0118 E6E7     		b	.L31
 393              	.L37:
 394 011a 00BF     		.align	2
 395              	.L36:
 396 011c 00000000 		.word	.LANCHOR0
 397              		.cfi_endproc
 398              	.LFE11:
 399              		.size	_ZL14run_bootloaderv, .-_ZL14run_bootloaderv
 400              		.section	.text.startup,"ax",%progbits
 401              		.align	1
 402              		.global	main
 403              		.syntax unified
 404              		.thumb
 405              		.thumb_func
 406              		.fpu softvfp
 407              		.type	main, %function
 408              	main:
 409              	.LFB13:
 269:bootloader.cpp **** 
 270:bootloader.cpp **** static void run_application() {
 271:bootloader.cpp **** 
 272:bootloader.cpp **** // disable interrupts, or perhaps do it on entry to the bootloader, since we're not using interrupt
 273:bootloader.cpp ****     asm(
 274:bootloader.cpp ****         "movw    r3, #16384\n\t"
 275:bootloader.cpp ****         "movt    r3, #0\n\t"
 276:bootloader.cpp ****         "ldr     sp, [r3, #0]\n\t"  // initial stack pointer
 277:bootloader.cpp ****         "ldr     pc, [r3, #4]\n\t"  // initial program counter
 278:bootloader.cpp ****     );
 279:bootloader.cpp **** }
 280:bootloader.cpp **** 
 281:bootloader.cpp **** int main(void)
 282:bootloader.cpp **** {
 410              		.loc 1 282 1 is_stmt 1 view -0
 411              		.cfi_startproc
 412              		@ args = 0, pretend = 0, frame = 0
 413              		@ frame_needed = 0, uses_anonymous_args = 0
 283:bootloader.cpp **** 	gpio_init();
 414              		.loc 1 283 2 view .LVU88
 282:bootloader.cpp **** 	gpio_init();
 415              		.loc 1 282 1 is_stmt 0 view .LVU89
 416 0000 10B5     		push	{r4, lr}
 417              	.LCFI5:
 418              		.cfi_def_cfa_offset 8
 419              		.cfi_offset 4, -8
 420              		.cfi_offset 14, -4
 421              		.loc 1 283 11 view .LVU90
 422 0002 FFF7FEFF 		bl	gpio_init
 423              	.LVL23:
 284:bootloader.cpp **** 
 285:bootloader.cpp **** 	if (VBUS) {
 424              		.loc 1 285 2 is_stmt 1 view .LVU91
 425              		.loc 1 285 6 is_stmt 0 view .LVU92
 426 0006 164B     		ldr	r3, .L45
 427 0008 1B68     		ldr	r3, [r3]
 428              		.loc 1 285 2 view .LVU93
 429 000a 5A00     		lsls	r2, r3, #1
ARM GAS  /tmp/ccwx636B.s 			page 14


 430 000c 0FD5     		bpl	.L39
 286:bootloader.cpp **** 		if (bootloader_ctrl == DFU_MODE) {
 431              		.loc 1 286 3 is_stmt 1 view .LVU94
 432              		.loc 1 286 23 is_stmt 0 view .LVU95
 433 000e 154C     		ldr	r4, .L45+4
 434              		.loc 1 286 3 view .LVU96
 435 0010 154B     		ldr	r3, .L45+8
 436 0012 2268     		ldr	r2, [r4]
 437 0014 9A42     		cmp	r2, r3
 438 0016 14D1     		bne	.L40
 287:bootloader.cpp **** 			ubertooth_init();
 439              		.loc 1 287 4 is_stmt 1 view .LVU97
 440              		.loc 1 287 18 is_stmt 0 view .LVU98
 441 0018 FFF7FEFF 		bl	ubertooth_init
 442              	.LVL24:
 288:bootloader.cpp **** 			run_bootloader();
 443              		.loc 1 288 4 is_stmt 1 view .LVU99
 444              		.loc 1 288 18 is_stmt 0 view .LVU100
 445 001c FFF7FEFF 		bl	_ZL14run_bootloaderv
 446              	.LVL25:
 289:bootloader.cpp **** 			bootloader_ctrl = 0;
 447              		.loc 1 289 4 is_stmt 1 view .LVU101
 448              		.loc 1 289 20 is_stmt 0 view .LVU102
 449 0020 0023     		movs	r3, #0
 290:bootloader.cpp **** 			wait(1);
 450              		.loc 1 290 8 view .LVU103
 451 0022 0120     		movs	r0, #1
 289:bootloader.cpp **** 			bootloader_ctrl = 0;
 452              		.loc 1 289 20 view .LVU104
 453 0024 2360     		str	r3, [r4]
 454              		.loc 1 290 4 is_stmt 1 view .LVU105
 455              	.L44:
 291:bootloader.cpp **** 			reset();
 292:bootloader.cpp **** 		} else if (ENTRY_PIN) {
 293:bootloader.cpp **** 			use_timeout = true;
 294:bootloader.cpp **** 			ubertooth_init();
 295:bootloader.cpp **** 			run_bootloader();
 296:bootloader.cpp **** 			wait(1);
 456              		.loc 1 296 8 is_stmt 0 view .LVU106
 457 0026 FFF7FEFF 		bl	wait
 458              	.LVL26:
 297:bootloader.cpp **** 			reset();
 459              		.loc 1 297 4 is_stmt 1 view .LVU107
 460              		.loc 1 297 9 is_stmt 0 view .LVU108
 461 002a FFF7FEFF 		bl	reset
 462              	.LVL27:
 463              	.L39:
 298:bootloader.cpp **** 		}
 299:bootloader.cpp **** 	}
 300:bootloader.cpp **** 
 301:bootloader.cpp **** 	run_application();
 464              		.loc 1 301 2 is_stmt 1 view .LVU109
 465              	.LBB12:
 466              	.LBI12:
 270:bootloader.cpp **** 
 467              		.loc 1 270 13 view .LVU110
 468              	.LBB13:
ARM GAS  /tmp/ccwx636B.s 			page 15


 273:bootloader.cpp ****         "movw    r3, #16384\n\t"
 469              		.loc 1 273 5 view .LVU111
 278:bootloader.cpp **** }
 470              		.loc 1 278 6 is_stmt 0 view .LVU112
 471              		.syntax unified
 472              	@ 278 "bootloader.cpp" 1
 473 002e 44F20003 		movw    r3, #16384
 474 0032 C0F20003 		movt    r3, #0
 475 0036 D3F800D0 		ldr     sp, [r3, #0]
 476 003a D3F804F0 		ldr     pc, [r3, #4]
 477              		
 478              	@ 0 "" 2
 479              		.thumb
 480              		.syntax unified
 481              	.LBE13:
 482              	.LBE12:
 302:bootloader.cpp **** 
 303:bootloader.cpp **** 	return 0;
 483              		.loc 1 303 2 is_stmt 1 view .LVU113
 304:bootloader.cpp **** }
 484              		.loc 1 304 1 is_stmt 0 view .LVU114
 485 003e 0020     		movs	r0, #0
 486 0040 10BD     		pop	{r4, pc}
 487              	.L40:
 292:bootloader.cpp **** 			use_timeout = true;
 488              		.loc 1 292 10 is_stmt 1 view .LVU115
 292:bootloader.cpp **** 			use_timeout = true;
 489              		.loc 1 292 14 is_stmt 0 view .LVU116
 490 0042 0A4B     		ldr	r3, .L45+12
 491 0044 1B68     		ldr	r3, [r3]
 292:bootloader.cpp **** 			use_timeout = true;
 492              		.loc 1 292 10 view .LVU117
 493 0046 5B02     		lsls	r3, r3, #9
 494 0048 F1D4     		bmi	.L39
 293:bootloader.cpp **** 			ubertooth_init();
 495              		.loc 1 293 4 is_stmt 1 view .LVU118
 293:bootloader.cpp **** 			ubertooth_init();
 496              		.loc 1 293 16 is_stmt 0 view .LVU119
 497 004a 0124     		movs	r4, #1
 498 004c 084B     		ldr	r3, .L45+16
 499 004e 83F80C41 		strb	r4, [r3, #268]
 294:bootloader.cpp **** 			run_bootloader();
 500              		.loc 1 294 4 is_stmt 1 view .LVU120
 294:bootloader.cpp **** 			run_bootloader();
 501              		.loc 1 294 18 is_stmt 0 view .LVU121
 502 0052 FFF7FEFF 		bl	ubertooth_init
 503              	.LVL28:
 295:bootloader.cpp **** 			wait(1);
 504              		.loc 1 295 4 is_stmt 1 view .LVU122
 295:bootloader.cpp **** 			wait(1);
 505              		.loc 1 295 18 is_stmt 0 view .LVU123
 506 0056 FFF7FEFF 		bl	_ZL14run_bootloaderv
 507              	.LVL29:
 296:bootloader.cpp **** 			reset();
 508              		.loc 1 296 4 is_stmt 1 view .LVU124
 296:bootloader.cpp **** 			reset();
 509              		.loc 1 296 8 is_stmt 0 view .LVU125
ARM GAS  /tmp/ccwx636B.s 			page 16


 510 005a 2046     		mov	r0, r4
 511 005c E3E7     		b	.L44
 512              	.L46:
 513 005e 00BF     		.align	2
 514              	.L45:
 515 0060 34C00920 		.word	537509940
 516 0064 00000000 		.word	bootloader_ctrl
 517 0068 21BB0543 		.word	1124449057
 518 006c 14C00920 		.word	537509908
 519 0070 00000000 		.word	.LANCHOR0
 520              		.cfi_endproc
 521              	.LFE13:
 522              		.size	main, .-main
 523              		.align	1
 524              		.syntax unified
 525              		.thumb
 526              		.thumb_func
 527              		.fpu softvfp
 528              		.type	_GLOBAL__sub_I__Z19dfu_request_handlerP12TSetupPacketPiPPh, %function
 529              	_GLOBAL__sub_I__Z19dfu_request_handlerP12TSetupPacketPiPPh:
 530              	.LFB15:
 531              		.loc 1 304 1 is_stmt 1 view -0
 532              		.cfi_startproc
 533              		@ args = 0, pretend = 0, frame = 0
 534              		@ frame_needed = 0, uses_anonymous_args = 0
 535              		@ link register save eliminated.
 536              	.LVL30:
 537              	.LBB14:
 538              	.LBI14:
 539              		.loc 1 304 1 view .LVU127
 540              	.LBB15:
 171:bootloader.cpp **** static uint8_t dfu_buffer[DFU::transfer_size];
 541              		.loc 1 171 21 is_stmt 0 view .LVU128
 542 0074 0248     		ldr	r0, .L48
 543 0076 00F20D11 		addw	r1, r0, #269
 544 007a FFF7FEBF 		b	_ZN3DFUC1ER5Flash
 545              	.LVL31:
 546              	.L49:
 547 007e 00BF     		.align	2
 548              	.L48:
 549 0080 00000000 		.word	.LANCHOR0
 550              	.LBE15:
 551              	.LBE14:
 552              		.cfi_endproc
 553              	.LFE15:
 554              		.size	_GLOBAL__sub_I__Z19dfu_request_handlerP12TSetupPacketPiPPh, .-_GLOBAL__sub_I__Z19dfu_request
 555              		.section	.init_array,"aw",%init_array
 556              		.align	2
 557 0000 00000000 		.word	_GLOBAL__sub_I__Z19dfu_request_handlerP12TSetupPacketPiPPh(target1)
 558              		.data
 559              		.set	.LANCHOR1,. + 0
 560              		.type	_ZL15dfu_descriptors, %object
 561              		.size	_ZL15dfu_descriptors, 172
 562              	_ZL15dfu_descriptors:
 563 0000 12010002 		.ascii	"\022\001\000\002\000\000\000@P\035\003`\000\001\001"
 563      00000040 
 563      501D0360 
ARM GAS  /tmp/ccwx636B.s 			page 17


 563      000101
 564 000f 02000109 		.ascii	"\002\000\001\011\002\033\000\001\001\000\2002\011\004"
 564      021B0001 
 564      01008032 
 564      0904
 565 001d 000000FE 		.ascii	"\000\000\000\376\001\002\000\011!\017\230:\000\001\001"
 565      01020009 
 565      210F983A 
 565      000101
 566 002c 01040309 		.ascii	"\001\004\003\011\004\\\003h\000t\000t\000p\000:\000"
 566      045C0368 
 566      00740074 
 566      0070003A 
 566      00
 567 003d 2F002F00 		.ascii	"/\000/\000g\000i\000t\000h\000u\000b\000.\000c\000o"
 567      67006900 
 567      74006800 
 567      75006200 
 567      2E006300 
 568 0052 006D002F 		.ascii	"\000m\000/\000g\000r\000e\000a\000t\000s\000c\000o\000"
 568      00670072 
 568      00650061 
 568      00740073 
 568      0063006F 
 569 0067 74007400 		.ascii	"t\000t\000g\000a\000d\000g\000e\000t\000s\000/\000u"
 569      67006100 
 569      64006700 
 569      65007400 
 569      73002F00 
 570 007c 00620065 		.ascii	"\000b\000e\000r\000t\000o\000o\000t\000h\000\036\003"
 570      00720074 
 570      006F006F 
 570      00740068 
 570      001E03
 571 008f 75007300 		.ascii	"u\000s\000b\000_\000b\000o\000o\000t\000l\000o\000a"
 571      62005F00 
 571      62006F00 
 571      6F007400 
 571      6C006F00 
 572 00a4 00640065 		.ascii	"\000d\000e\000r\000\000"
 572      00720000 
 573              		.bss
 574              		.align	2
 575              		.set	.LANCHOR0,. + 0
 576              		.type	_ZL3dfu, %object
 577              		.size	_ZL3dfu, 8
 578              	_ZL3dfu:
 579 0000 00000000 		.space	8
 579      00000000 
 580              		.type	_ZL10dfu_buffer, %object
 581              		.size	_ZL10dfu_buffer, 256
 582              	_ZL10dfu_buffer:
 583 0008 00000000 		.space	256
 583      00000000 
 583      00000000 
 583      00000000 
 583      00000000 
ARM GAS  /tmp/ccwx636B.s 			page 18


 584              		.type	_ZL5count, %object
 585              		.size	_ZL5count, 4
 586              	_ZL5count:
 587 0108 00000000 		.space	4
 588              		.type	_ZL11use_timeout, %object
 589              		.size	_ZL11use_timeout, 1
 590              	_ZL11use_timeout:
 591 010c 00       		.space	1
 592              		.type	_ZL5flash, %object
 593              		.size	_ZL5flash, 1
 594              	_ZL5flash:
 595 010d 00       		.space	1
 596              		.text
 597              	.Letext0:
 598              		.file 2 "/usr/lib/gcc/arm-none-eabi/9.2.1/include/stdint.h"
 599              		.file 3 "../common/ubertooth.h"
 600              		.file 4 "../common/lpcusb/target/type.h"
 601              		.file 5 "../common/lpcusb/target/usbstruct.h"
 602              		.file 6 "iap.h"
 603              		.file 7 "flash.h"
 604              		.file 8 "dfu.h"
 605              		.file 9 "../common/lpcusb/target/usbapi.h"