ARM GAS  /tmp/cczxpNKW.s 			page 1


   1              		.cpu cortex-m3
   2              		.eabi_attribute 20, 1
   3              		.eabi_attribute 21, 1
   4              		.eabi_attribute 23, 3
   5              		.eabi_attribute 24, 1
   6              		.eabi_attribute 25, 1
   7              		.eabi_attribute 26, 1
   8              		.eabi_attribute 30, 4
   9              		.eabi_attribute 34, 1
  10              		.eabi_attribute 18, 4
  11              		.file	"dfu.cpp"
  12              		.text
  13              	.Ltext0:
  14              		.cfi_sections	.debug_frame
  15              		.align	1
  16              		.global	_ZN3DFUC2ER5Flash
  17              		.arch armv7-m
  18              		.syntax unified
  19              		.thumb
  20              		.thumb_func
  21              		.fpu softvfp
  22              		.type	_ZN3DFUC2ER5Flash, %function
  23              	_ZN3DFUC2ER5Flash:
  24              	.LVL0:
  25              	.LFB7:
  26              		.file 1 "dfu.cpp"
   1:dfu.cpp       **** /*
   2:dfu.cpp       ****  * Copyright 2010, 2011 Michael Ossmann
   3:dfu.cpp       ****  *
   4:dfu.cpp       ****  * This file is part of Project Ubertooth.
   5:dfu.cpp       ****  *
   6:dfu.cpp       ****  * This program is free software; you can redistribute it and/or modify
   7:dfu.cpp       ****  * it under the terms of the GNU General Public License as published by
   8:dfu.cpp       ****  * the Free Software Foundation; either version 2, or (at your option)
   9:dfu.cpp       ****  * any later version.
  10:dfu.cpp       ****  *
  11:dfu.cpp       ****  * This program is distributed in the hope that it will be useful,
  12:dfu.cpp       ****  * but WITHOUT ANY WARRANTY; without even the implied warranty of
  13:dfu.cpp       ****  * MERCHANTABILITY or FITNESS FOR A PARTICULAR PURPOSE.  See the
  14:dfu.cpp       ****  * GNU General Public License for more details.
  15:dfu.cpp       ****  *
  16:dfu.cpp       ****  * You should have received a copy of the GNU General Public License
  17:dfu.cpp       ****  * along with this program; see the file COPYING.  If not, write to
  18:dfu.cpp       ****  * the Free Software Foundation, Inc., 51 Franklin Street,
  19:dfu.cpp       ****  * Boston, MA 02110-1301, USA.
  20:dfu.cpp       ****  */
  21:dfu.cpp       **** 
  22:dfu.cpp       **** #include "dfu.h"
  23:dfu.cpp       **** 
  24:dfu.cpp       **** #include <string.h>
  25:dfu.cpp       **** 
  26:dfu.cpp       **** struct memory_policy {
  27:dfu.cpp       ****     static bool write_permitted(const uint32_t flash_address) {
  28:dfu.cpp       ****         // Protect flash region containing bootloader.
  29:dfu.cpp       ****         return (flash_address >= 0x4000);
  30:dfu.cpp       ****     }
  31:dfu.cpp       **** };
ARM GAS  /tmp/cczxpNKW.s 			page 2


  32:dfu.cpp       **** 
  33:dfu.cpp       **** DFU::DFU(Flash& flash) :
  27              		.loc 1 33 1 view -0
  28              		.cfi_startproc
  29              		@ args = 0, pretend = 0, frame = 0
  30              		@ frame_needed = 0, uses_anonymous_args = 0
  31              		@ link register save eliminated.
  32              	.LBB122:
  34:dfu.cpp       ****     flash(flash),
  35:dfu.cpp       ****     status(OK),
  36:dfu.cpp       ****     state(DFUIDLE),
  37:dfu.cpp       ****     virginity(true) {
  33              		.loc 1 37 19 is_stmt 0 view .LVU1
  34 0000 4FF40072 		mov	r2, #512
  35 0004 8280     		strh	r2, [r0, #4]	@ movhi
  36 0006 0122     		movs	r2, #1
  37 0008 0160     		str	r1, [r0]
  38 000a 8271     		strb	r2, [r0, #6]
  39              	.LBE122:
  38:dfu.cpp       **** }
  40              		.loc 1 38 1 view .LVU2
  41 000c 7047     		bx	lr
  42              		.cfi_endproc
  43              	.LFE7:
  44              		.size	_ZN3DFUC2ER5Flash, .-_ZN3DFUC2ER5Flash
  45              		.global	_ZN3DFUC1ER5Flash
  46              		.thumb_set _ZN3DFUC1ER5Flash,_ZN3DFUC2ER5Flash
  47              		.align	1
  48              		.global	_ZNK3DFU11in_dfu_modeEv
  49              		.syntax unified
  50              		.thumb
  51              		.thumb_func
  52              		.fpu softvfp
  53              		.type	_ZNK3DFU11in_dfu_modeEv, %function
  54              	_ZNK3DFU11in_dfu_modeEv:
  55              	.LVL1:
  56              	.LFB10:
  39:dfu.cpp       **** 
  40:dfu.cpp       **** bool DFU::request_handler(TSetupPacket *pSetup, uint32_t *piLen, uint8_t **ppbData) {
  41:dfu.cpp       ****     uint8_t* pbData = *ppbData;
  42:dfu.cpp       ****     
  43:dfu.cpp       ****     switch( pSetup->bRequest ) {
  44:dfu.cpp       ****     case DETACH:
  45:dfu.cpp       ****         return request_detach(pSetup, piLen, pbData);
  46:dfu.cpp       ****         
  47:dfu.cpp       ****     case DNLOAD:
  48:dfu.cpp       ****         return request_dnload(pSetup, piLen, pbData);
  49:dfu.cpp       ****         
  50:dfu.cpp       ****     case UPLOAD:
  51:dfu.cpp       ****         return request_upload(pSetup, piLen, pbData);
  52:dfu.cpp       ****         
  53:dfu.cpp       ****     case GETSTATUS:
  54:dfu.cpp       ****         return request_getstatus(pSetup, piLen, pbData);
  55:dfu.cpp       ****         
  56:dfu.cpp       ****     case CLRSTATUS:
  57:dfu.cpp       ****         return request_clrstatus(pSetup, piLen, pbData);
  58:dfu.cpp       ****         
ARM GAS  /tmp/cczxpNKW.s 			page 3


  59:dfu.cpp       ****     case GETSTATE:
  60:dfu.cpp       ****         return request_getstate(pSetup, piLen, pbData);
  61:dfu.cpp       ****         
  62:dfu.cpp       ****     case ABORT:
  63:dfu.cpp       ****         return request_abort(pSetup, piLen, pbData);
  64:dfu.cpp       ****         
  65:dfu.cpp       ****     default:
  66:dfu.cpp       ****         return false;
  67:dfu.cpp       ****     }
  68:dfu.cpp       **** }
  69:dfu.cpp       **** 
  70:dfu.cpp       **** bool DFU::in_dfu_mode() const {
  57              		.loc 1 70 31 is_stmt 1 view -0
  58              		.cfi_startproc
  59              		@ args = 0, pretend = 0, frame = 0
  60              		@ frame_needed = 0, uses_anonymous_args = 0
  61              		@ link register save eliminated.
  71:dfu.cpp       ****     return (get_state() >= DFUIDLE);
  62              		.loc 1 71 5 view .LVU4
  63              	.LBB123:
  64              	.LBI123:
  72:dfu.cpp       **** }
  73:dfu.cpp       **** 
  74:dfu.cpp       **** bool DFU::dfu_virgin() const {
  75:dfu.cpp       ****     return virginity;
  76:dfu.cpp       **** }
  77:dfu.cpp       **** 
  78:dfu.cpp       **** void DFU::set_state(const State new_state) {
  79:dfu.cpp       ****     state = new_state;
  80:dfu.cpp       ****     virginity = false;
  81:dfu.cpp       **** }
  82:dfu.cpp       **** 
  83:dfu.cpp       **** uint8_t DFU::get_state() const {
  65              		.loc 1 83 9 view .LVU5
  66              	.LBB124:
  84:dfu.cpp       ****     return state;
  67              		.loc 1 84 5 view .LVU6
  68              		.loc 1 84 5 is_stmt 0 view .LVU7
  69              	.LBE124:
  70              	.LBE123:
  71:dfu.cpp       ****     return (get_state() >= DFUIDLE);
  71              		.loc 1 71 35 view .LVU8
  72 000e 4079     		ldrb	r0, [r0, #5]	@ zero_extendqisi2
  73              	.LVL2:
  72:dfu.cpp       **** }
  74              		.loc 1 72 1 view .LVU9
  75 0010 0128     		cmp	r0, #1
  76 0012 94BF     		ite	ls
  77 0014 0020     		movls	r0, #0
  78 0016 0120     		movhi	r0, #1
  79 0018 7047     		bx	lr
  80              		.cfi_endproc
  81              	.LFE10:
  82              		.size	_ZNK3DFU11in_dfu_modeEv, .-_ZNK3DFU11in_dfu_modeEv
  83              		.align	1
  84              		.global	_ZNK3DFU10dfu_virginEv
  85              		.syntax unified
ARM GAS  /tmp/cczxpNKW.s 			page 4


  86              		.thumb
  87              		.thumb_func
  88              		.fpu softvfp
  89              		.type	_ZNK3DFU10dfu_virginEv, %function
  90              	_ZNK3DFU10dfu_virginEv:
  91              	.LVL3:
  92              	.LFB11:
  74:dfu.cpp       ****     return virginity;
  93              		.loc 1 74 30 is_stmt 1 view -0
  94              		.cfi_startproc
  95              		@ args = 0, pretend = 0, frame = 0
  96              		@ frame_needed = 0, uses_anonymous_args = 0
  97              		@ link register save eliminated.
  75:dfu.cpp       **** }
  98              		.loc 1 75 5 view .LVU11
  76:dfu.cpp       **** 
  99              		.loc 1 76 1 is_stmt 0 view .LVU12
 100 001a 8079     		ldrb	r0, [r0, #6]	@ zero_extendqisi2
 101              	.LVL4:
  76:dfu.cpp       **** 
 102              		.loc 1 76 1 view .LVU13
 103 001c 7047     		bx	lr
 104              		.cfi_endproc
 105              	.LFE11:
 106              		.size	_ZNK3DFU10dfu_virginEv, .-_ZNK3DFU10dfu_virginEv
 107              		.align	1
 108              		.global	_ZN3DFU9set_stateENS_5StateE
 109              		.syntax unified
 110              		.thumb
 111              		.thumb_func
 112              		.fpu softvfp
 113              		.type	_ZN3DFU9set_stateENS_5StateE, %function
 114              	_ZN3DFU9set_stateENS_5StateE:
 115              	.LVL5:
 116              	.LFB12:
  78:dfu.cpp       ****     state = new_state;
 117              		.loc 1 78 44 is_stmt 1 view -0
 118              		.cfi_startproc
 119              		@ args = 0, pretend = 0, frame = 0
 120              		@ frame_needed = 0, uses_anonymous_args = 0
 121              		@ link register save eliminated.
  79:dfu.cpp       ****     virginity = false;
 122              		.loc 1 79 5 view .LVU15
  80:dfu.cpp       **** }
 123              		.loc 1 80 15 is_stmt 0 view .LVU16
 124 001e 0023     		movs	r3, #0
  79:dfu.cpp       ****     virginity = false;
 125              		.loc 1 79 11 view .LVU17
 126 0020 4171     		strb	r1, [r0, #5]
  80:dfu.cpp       **** }
 127              		.loc 1 80 5 is_stmt 1 view .LVU18
  80:dfu.cpp       **** }
 128              		.loc 1 80 15 is_stmt 0 view .LVU19
 129 0022 8371     		strb	r3, [r0, #6]
  81:dfu.cpp       **** 
 130              		.loc 1 81 1 view .LVU20
 131 0024 7047     		bx	lr
ARM GAS  /tmp/cczxpNKW.s 			page 5


 132              		.cfi_endproc
 133              	.LFE12:
 134              		.size	_ZN3DFU9set_stateENS_5StateE, .-_ZN3DFU9set_stateENS_5StateE
 135              		.align	1
 136              		.global	_ZNK3DFU9get_stateEv
 137              		.syntax unified
 138              		.thumb
 139              		.thumb_func
 140              		.fpu softvfp
 141              		.type	_ZNK3DFU9get_stateEv, %function
 142              	_ZNK3DFU9get_stateEv:
 143              	.LVL6:
 144              	.LFB13:
  83:dfu.cpp       ****     return state;
 145              		.loc 1 83 32 is_stmt 1 view -0
 146              		.cfi_startproc
 147              		@ args = 0, pretend = 0, frame = 0
 148              		@ frame_needed = 0, uses_anonymous_args = 0
 149              		@ link register save eliminated.
 150              		.loc 1 84 5 view .LVU22
  85:dfu.cpp       **** }
 151              		.loc 1 85 1 is_stmt 0 view .LVU23
 152 0026 4079     		ldrb	r0, [r0, #5]	@ zero_extendqisi2
 153              	.LVL7:
 154              		.loc 1 85 1 view .LVU24
 155 0028 7047     		bx	lr
 156              		.cfi_endproc
 157              	.LFE13:
 158              		.size	_ZNK3DFU9get_stateEv, .-_ZNK3DFU9get_stateEv
 159              		.align	1
 160              		.global	_ZN3DFU10set_statusENS_6StatusE
 161              		.syntax unified
 162              		.thumb
 163              		.thumb_func
 164              		.fpu softvfp
 165              		.type	_ZN3DFU10set_statusENS_6StatusE, %function
 166              	_ZN3DFU10set_statusENS_6StatusE:
 167              	.LVL8:
 168              	.LFB14:
  86:dfu.cpp       **** 
  87:dfu.cpp       **** void DFU::set_status(const Status new_status) {
 169              		.loc 1 87 47 is_stmt 1 view -0
 170              		.cfi_startproc
 171              		@ args = 0, pretend = 0, frame = 0
 172              		@ frame_needed = 0, uses_anonymous_args = 0
 173              		@ link register save eliminated.
  88:dfu.cpp       ****     status = new_status;
 174              		.loc 1 88 5 view .LVU26
 175              		.loc 1 88 12 is_stmt 0 view .LVU27
 176 002a 0171     		strb	r1, [r0, #4]
  89:dfu.cpp       **** }
 177              		.loc 1 89 1 view .LVU28
 178 002c 7047     		bx	lr
 179              		.cfi_endproc
 180              	.LFE14:
 181              		.size	_ZN3DFU10set_statusENS_6StatusE, .-_ZN3DFU10set_statusENS_6StatusE
 182              		.align	1
ARM GAS  /tmp/cczxpNKW.s 			page 6


 183              		.global	_ZNK3DFU10get_statusEv
 184              		.syntax unified
 185              		.thumb
 186              		.thumb_func
 187              		.fpu softvfp
 188              		.type	_ZNK3DFU10get_statusEv, %function
 189              	_ZNK3DFU10get_statusEv:
 190              	.LVL9:
 191              	.LFB15:
  90:dfu.cpp       **** 
  91:dfu.cpp       **** uint8_t DFU::get_status() const {
 192              		.loc 1 91 33 is_stmt 1 view -0
 193              		.cfi_startproc
 194              		@ args = 0, pretend = 0, frame = 0
 195              		@ frame_needed = 0, uses_anonymous_args = 0
 196              		@ link register save eliminated.
  92:dfu.cpp       ****     return status;
 197              		.loc 1 92 5 view .LVU30
  93:dfu.cpp       **** }
 198              		.loc 1 93 1 is_stmt 0 view .LVU31
 199 002e 0079     		ldrb	r0, [r0, #4]	@ zero_extendqisi2
 200              	.LVL10:
 201              		.loc 1 93 1 view .LVU32
 202 0030 7047     		bx	lr
 203              		.cfi_endproc
 204              	.LFE15:
 205              		.size	_ZNK3DFU10get_statusEv, .-_ZNK3DFU10get_statusEv
 206              		.align	1
 207              		.global	_ZN3DFU5errorENS_6StatusE
 208              		.syntax unified
 209              		.thumb
 210              		.thumb_func
 211              		.fpu softvfp
 212              		.type	_ZN3DFU5errorENS_6StatusE, %function
 213              	_ZN3DFU5errorENS_6StatusE:
 214              	.LVL11:
 215              	.LFB16:
  94:dfu.cpp       **** 
  95:dfu.cpp       **** bool DFU::error(const Status new_status) {
 216              		.loc 1 95 42 is_stmt 1 view -0
 217              		.cfi_startproc
 218              		@ args = 0, pretend = 0, frame = 0
 219              		@ frame_needed = 0, uses_anonymous_args = 0
 220              		@ link register save eliminated.
  96:dfu.cpp       ****     if( (get_state() != APPIDLE) &&
 221              		.loc 1 96 5 view .LVU34
 222              	.LBB125:
 223              	.LBI125:
  83:dfu.cpp       ****     return state;
 224              		.loc 1 83 9 view .LVU35
 225              	.LBB126:
  84:dfu.cpp       **** }
 226              		.loc 1 84 5 view .LVU36
  84:dfu.cpp       **** }
 227              		.loc 1 84 5 is_stmt 0 view .LVU37
 228              	.LBE126:
 229              	.LBE125:
ARM GAS  /tmp/cczxpNKW.s 			page 7


 230              		.loc 1 96 34 view .LVU38
 231 0032 4379     		ldrb	r3, [r0, #5]	@ zero_extendqisi2
 232              	.LBB127:
 233              	.LBB128:
  88:dfu.cpp       **** }
 234              		.loc 1 88 12 view .LVU39
 235 0034 0171     		strb	r1, [r0, #4]
 236              	.LBE128:
 237              	.LBE127:
 238              		.loc 1 96 34 view .LVU40
 239 0036 012B     		cmp	r3, #1
 240              	.LVL12:
  84:dfu.cpp       **** }
 241              		.loc 1 84 5 is_stmt 1 view .LVU41
  97:dfu.cpp       ****         (get_state() != APPDETACH) ) {
  98:dfu.cpp       ****          set_state(DFUERROR);
 242              		.loc 1 98 10 view .LVU42
 243              	.LBB130:
 244              	.LBI130:
  78:dfu.cpp       ****     state = new_state;
 245              		.loc 1 78 6 view .LVU43
 246              	.LBB131:
  79:dfu.cpp       ****     virginity = false;
 247              		.loc 1 79 5 view .LVU44
  79:dfu.cpp       ****     virginity = false;
 248              		.loc 1 79 11 is_stmt 0 view .LVU45
 249 0038 81BF     		itttt	hi
 250 003a 0A23     		movhi	r3, #10
 251 003c 4371     		strbhi	r3, [r0, #5]
  80:dfu.cpp       **** }
 252              		.loc 1 80 5 is_stmt 1 view .LVU46
  80:dfu.cpp       **** }
 253              		.loc 1 80 15 is_stmt 0 view .LVU47
 254 003e 0023     		movhi	r3, #0
 255 0040 8371     		strbhi	r3, [r0, #6]
 256              	.LVL13:
  80:dfu.cpp       **** }
 257              		.loc 1 80 15 view .LVU48
 258              	.LBE131:
 259              	.LBE130:
  99:dfu.cpp       ****     }
 100:dfu.cpp       ****     set_status(new_status);
 260              		.loc 1 100 5 is_stmt 1 view .LVU49
 261              	.LBB132:
 262              	.LBI127:
  87:dfu.cpp       ****     status = new_status;
 263              		.loc 1 87 6 view .LVU50
 264              	.LBB129:
  88:dfu.cpp       **** }
 265              		.loc 1 88 5 view .LVU51
  88:dfu.cpp       **** }
 266              		.loc 1 88 5 is_stmt 0 view .LVU52
 267              	.LBE129:
 268              	.LBE132:
 101:dfu.cpp       ****     return false;
 269              		.loc 1 101 5 is_stmt 1 view .LVU53
 102:dfu.cpp       **** }
ARM GAS  /tmp/cczxpNKW.s 			page 8


 270              		.loc 1 102 1 is_stmt 0 view .LVU54
 271 0042 0020     		movs	r0, #0
 272              	.LVL14:
 273              		.loc 1 102 1 view .LVU55
 274 0044 7047     		bx	lr
 275              		.cfi_endproc
 276              	.LFE16:
 277              		.size	_ZN3DFU5errorENS_6StatusE, .-_ZN3DFU5errorENS_6StatusE
 278              		.align	1
 279              		.global	_ZNK3DFU20get_status_string_idEv
 280              		.syntax unified
 281              		.thumb
 282              		.thumb_func
 283              		.fpu softvfp
 284              		.type	_ZNK3DFU20get_status_string_idEv, %function
 285              	_ZNK3DFU20get_status_string_idEv:
 286              	.LVL15:
 287              	.LFB17:
 103:dfu.cpp       **** 
 104:dfu.cpp       **** uint8_t DFU::get_status_string_id() const {
 288              		.loc 1 104 43 is_stmt 1 view -0
 289              		.cfi_startproc
 290              		@ args = 0, pretend = 0, frame = 0
 291              		@ frame_needed = 0, uses_anonymous_args = 0
 292              		@ link register save eliminated.
 105:dfu.cpp       ****     return 0;
 293              		.loc 1 105 5 view .LVU57
 106:dfu.cpp       **** }
 294              		.loc 1 106 1 is_stmt 0 view .LVU58
 295 0046 0020     		movs	r0, #0
 296              	.LVL16:
 297              		.loc 1 106 1 view .LVU59
 298 0048 7047     		bx	lr
 299              		.cfi_endproc
 300              	.LFE17:
 301              		.size	_ZNK3DFU20get_status_string_idEv, .-_ZNK3DFU20get_status_string_idEv
 302              		.align	1
 303              		.global	_ZNK3DFU16get_poll_timeoutEv
 304              		.syntax unified
 305              		.thumb
 306              		.thumb_func
 307              		.fpu softvfp
 308              		.type	_ZNK3DFU16get_poll_timeoutEv, %function
 309              	_ZNK3DFU16get_poll_timeoutEv:
 310              	.LVL17:
 311              	.LFB18:
 107:dfu.cpp       **** 
 108:dfu.cpp       **** uint32_t DFU::get_poll_timeout() const {
 312              		.loc 1 108 40 is_stmt 1 view -0
 313              		.cfi_startproc
 314              		@ args = 0, pretend = 0, frame = 0
 315              		@ frame_needed = 0, uses_anonymous_args = 0
 316              		@ link register save eliminated.
 109:dfu.cpp       ****     return 20;  // milliseconds
 317              		.loc 1 109 5 view .LVU61
 110:dfu.cpp       **** }
 318              		.loc 1 110 1 is_stmt 0 view .LVU62
ARM GAS  /tmp/cczxpNKW.s 			page 9


 319 004a 1420     		movs	r0, #20
 320              	.LVL18:
 321              		.loc 1 110 1 view .LVU63
 322 004c 7047     		bx	lr
 323              		.cfi_endproc
 324              	.LFE18:
 325              		.size	_ZNK3DFU16get_poll_timeoutEv, .-_ZNK3DFU16get_poll_timeoutEv
 326              		.align	1
 327              		.global	_ZN3DFU14request_detachEP12TSetupPacketPmPh
 328              		.syntax unified
 329              		.thumb
 330              		.thumb_func
 331              		.fpu softvfp
 332              		.type	_ZN3DFU14request_detachEP12TSetupPacketPmPh, %function
 333              	_ZN3DFU14request_detachEP12TSetupPacketPmPh:
 334              	.LVL19:
 335              	.LFB19:
 111:dfu.cpp       **** 
 112:dfu.cpp       **** bool DFU::request_detach(TSetupPacket *pSetup, uint32_t *piLen, uint8_t* pbData) {
 336              		.loc 1 112 82 is_stmt 1 view -0
 337              		.cfi_startproc
 338              		@ args = 0, pretend = 0, frame = 0
 339              		@ frame_needed = 0, uses_anonymous_args = 0
 340              		@ link register save eliminated.
 113:dfu.cpp       ****     if( (pSetup->wLength == 0) && (pSetup->wValue <= detach_timeout_ms) ) {
 341              		.loc 1 113 5 view .LVU65
 342 004e CA88     		ldrh	r2, [r1, #6]
 343              	.LVL20:
 344              		.loc 1 113 5 is_stmt 0 view .LVU66
 345 0050 22B9     		cbnz	r2, .L13
 346              		.loc 1 113 32 discriminator 1 view .LVU67
 347 0052 43F69823 		movw	r3, #15000
 348              	.LVL21:
 349              		.loc 1 113 32 discriminator 1 view .LVU68
 350 0056 4988     		ldrh	r1, [r1, #2]
 351              	.LVL22:
 352              		.loc 1 113 32 discriminator 1 view .LVU69
 353 0058 9942     		cmp	r1, r3
 354 005a 02D9     		bls	.L16
 355              	.L13:
 114:dfu.cpp       ****         // TODO: Check DFU vs. APP mode, and reboot device if in DFU mode?
 115:dfu.cpp       ****         set_state(APPDETACH);
 116:dfu.cpp       ****         return true;
 117:dfu.cpp       ****     } else {
 118:dfu.cpp       ****         return error(ERRUNKNOWN);
 356              		.loc 1 118 9 is_stmt 1 view .LVU70
 357              		.loc 1 118 21 is_stmt 0 view .LVU71
 358 005c 0E21     		movs	r1, #14
 359 005e FFF7FEBF 		b	_ZN3DFU5errorENS_6StatusE
 360              	.LVL23:
 361              	.L16:
 115:dfu.cpp       ****         return true;
 362              		.loc 1 115 9 is_stmt 1 view .LVU72
 363              	.LBB133:
 364              	.LBI133:
  78:dfu.cpp       ****     state = new_state;
 365              		.loc 1 78 6 view .LVU73
ARM GAS  /tmp/cczxpNKW.s 			page 10


 366              	.LBB134:
  79:dfu.cpp       ****     virginity = false;
 367              		.loc 1 79 5 view .LVU74
  79:dfu.cpp       ****     virginity = false;
 368              		.loc 1 79 11 is_stmt 0 view .LVU75
 369 0062 0123     		movs	r3, #1
  80:dfu.cpp       **** }
 370              		.loc 1 80 15 view .LVU76
 371 0064 8271     		strb	r2, [r0, #6]
  79:dfu.cpp       ****     virginity = false;
 372              		.loc 1 79 11 view .LVU77
 373 0066 4371     		strb	r3, [r0, #5]
  80:dfu.cpp       **** }
 374              		.loc 1 80 5 is_stmt 1 view .LVU78
 375              	.LVL24:
  80:dfu.cpp       **** }
 376              		.loc 1 80 5 is_stmt 0 view .LVU79
 377              	.LBE134:
 378              	.LBE133:
 116:dfu.cpp       ****     } else {
 379              		.loc 1 116 9 is_stmt 1 view .LVU80
 119:dfu.cpp       ****     }
 120:dfu.cpp       **** }
 380              		.loc 1 120 1 is_stmt 0 view .LVU81
 381 0068 1846     		mov	r0, r3
 382              	.LVL25:
 383              		.loc 1 120 1 view .LVU82
 384 006a 7047     		bx	lr
 385              		.cfi_endproc
 386              	.LFE19:
 387              		.size	_ZN3DFU14request_detachEP12TSetupPacketPmPh, .-_ZN3DFU14request_detachEP12TSetupPacketPmPh
 388              		.align	1
 389              		.global	_ZN3DFU14request_dnloadEP12TSetupPacketPmPh
 390              		.syntax unified
 391              		.thumb
 392              		.thumb_func
 393              		.fpu softvfp
 394              		.type	_ZN3DFU14request_dnloadEP12TSetupPacketPmPh, %function
 395              	_ZN3DFU14request_dnloadEP12TSetupPacketPmPh:
 396              	.LVL26:
 397              	.LFB20:
 121:dfu.cpp       **** 
 122:dfu.cpp       **** bool DFU::request_dnload(TSetupPacket *pSetup, uint32_t *piLen, uint8_t *pbData) {
 398              		.loc 1 122 82 is_stmt 1 view -0
 399              		.cfi_startproc
 400              		@ args = 0, pretend = 0, frame = 0
 401              		@ frame_needed = 0, uses_anonymous_args = 0
 123:dfu.cpp       ****     if( pSetup->wLength == 0 ) {
 402              		.loc 1 123 5 view .LVU84
 122:dfu.cpp       ****     if( pSetup->wLength == 0 ) {
 403              		.loc 1 122 82 is_stmt 0 view .LVU85
 404 006c 2DE9F341 		push	{r0, r1, r4, r5, r6, r7, r8, lr}
 405              	.LCFI0:
 406              		.cfi_def_cfa_offset 32
 407              		.cfi_offset 4, -24
 408              		.cfi_offset 5, -20
 409              		.cfi_offset 6, -16
ARM GAS  /tmp/cczxpNKW.s 			page 11


 410              		.cfi_offset 7, -12
 411              		.cfi_offset 8, -8
 412              		.cfi_offset 14, -4
 122:dfu.cpp       ****     if( pSetup->wLength == 0 ) {
 413              		.loc 1 122 82 view .LVU86
 414 0070 9846     		mov	r8, r3
 415              	.LBB169:
 416              		.loc 1 123 17 view .LVU87
 417 0072 CB88     		ldrh	r3, [r1, #6]
 418              	.LVL27:
 419              		.loc 1 123 17 view .LVU88
 420              	.LBE169:
 122:dfu.cpp       ****     if( pSetup->wLength == 0 ) {
 421              		.loc 1 122 82 view .LVU89
 422 0074 0446     		mov	r4, r0
 423              	.LBB182:
 424              		.loc 1 123 5 view .LVU90
 425 0076 83B9     		cbnz	r3, .L18
 124:dfu.cpp       ****         if( get_state() != DFUDNLOAD_IDLE ) {
 426              		.loc 1 124 9 is_stmt 1 view .LVU91
 427              	.LVL28:
 428              	.LBB170:
 429              	.LBI170:
  83:dfu.cpp       ****     return state;
 430              		.loc 1 83 9 view .LVU92
 431              	.LBB171:
  84:dfu.cpp       **** }
 432              		.loc 1 84 5 view .LVU93
  84:dfu.cpp       **** }
 433              		.loc 1 84 5 is_stmt 0 view .LVU94
 434              	.LBE171:
 435              	.LBE170:
 436              		.loc 1 124 9 view .LVU95
 437 0078 4279     		ldrb	r2, [r0, #5]	@ zero_extendqisi2
 438              	.LVL29:
 439              		.loc 1 124 9 view .LVU96
 440 007a 052A     		cmp	r2, #5
 441 007c 06D0     		beq	.L19
 442              	.L23:
 125:dfu.cpp       ****             return error(ERRSTALLEDPKT);
 443              		.loc 1 125 13 is_stmt 1 view .LVU97
 444              		.loc 1 125 25 is_stmt 0 view .LVU98
 445 007e 0F21     		movs	r1, #15
 446              	.LVL30:
 447              	.L39:
 448              		.loc 1 125 25 view .LVU99
 449              	.LBE182:
 450              	.LBB183:
 451              	.LBB184:
 126:dfu.cpp       ****         }
 127:dfu.cpp       **** 
 128:dfu.cpp       ****         // End of transfer
 129:dfu.cpp       ****         set_state(DFUMANIFEST_SYNC);
 130:dfu.cpp       ****         
 131:dfu.cpp       ****         return true;
 132:dfu.cpp       ****     } else if( pSetup->wLength == transfer_size ) {
 133:dfu.cpp       ****         if( (get_state() != DFUIDLE) && (get_state() != DFUDNLOAD_IDLE) ) {
ARM GAS  /tmp/cczxpNKW.s 			page 12


 134:dfu.cpp       ****             return error(ERRSTALLEDPKT);
 135:dfu.cpp       ****         }
 136:dfu.cpp       ****         
 137:dfu.cpp       ****         // TODO: Improve returned error values.
 138:dfu.cpp       ****         const uint32_t length = pSetup->wLength;
 139:dfu.cpp       ****         const uint32_t flash_address = pSetup->wValue * transfer_size;
 140:dfu.cpp       ****         const uint32_t source_address = reinterpret_cast<uint32_t>(pbData);
 141:dfu.cpp       ****         if( memory_policy::write_permitted(flash_address) ) {
 142:dfu.cpp       ****             if( flash.write(flash_address, source_address, length) ) {
 143:dfu.cpp       ****                 set_state(DFUDNLOAD_SYNC);
 144:dfu.cpp       ****             } else {
 145:dfu.cpp       ****                 return error(ERRPROG);
 452              		.loc 1 145 29 view .LVU100
 453 0080 2046     		mov	r0, r4
 454              	.LVL31:
 455              	.L38:
 456              		.loc 1 145 29 view .LVU101
 457              	.LBE184:
 458              	.LBE183:
 146:dfu.cpp       ****             }
 147:dfu.cpp       ****             return true;
 148:dfu.cpp       ****         } else {
 149:dfu.cpp       ****             return error(ERRWRITE);
 150:dfu.cpp       ****         }
 151:dfu.cpp       ****     } else {
 152:dfu.cpp       ****         return error(ERRUNKNOWN);
 153:dfu.cpp       ****     }
 154:dfu.cpp       **** }
 459              		.loc 1 154 1 view .LVU102
 460 0082 02B0     		add	sp, sp, #8
 461              	.LCFI1:
 462              		.cfi_remember_state
 463              		.cfi_def_cfa_offset 24
 464              		@ sp needed
 465 0084 BDE8F041 		pop	{r4, r5, r6, r7, r8, lr}
 466              	.LCFI2:
 467              		.cfi_restore 14
 468              		.cfi_restore 8
 469              		.cfi_restore 7
 470              		.cfi_restore 6
 471              		.cfi_restore 5
 472              		.cfi_restore 4
 473              		.cfi_def_cfa_offset 0
 474              	.LVL32:
 475              	.LBB221:
 476              	.LBB172:
 152:dfu.cpp       ****     }
 477              		.loc 1 152 21 view .LVU103
 478 0088 FFF7FEBF 		b	_ZN3DFU5errorENS_6StatusE
 479              	.LVL33:
 480              	.L19:
 481              	.LCFI3:
 482              		.cfi_restore_state
 152:dfu.cpp       ****     }
 483              		.loc 1 152 21 view .LVU104
 484              	.LBE172:
 129:dfu.cpp       ****         
ARM GAS  /tmp/cczxpNKW.s 			page 13


 485              		.loc 1 129 9 is_stmt 1 view .LVU105
 486              	.LBB177:
 487              	.LBI177:
  78:dfu.cpp       ****     state = new_state;
 488              		.loc 1 78 6 view .LVU106
 489              	.LBB178:
  79:dfu.cpp       ****     virginity = false;
 490              		.loc 1 79 5 view .LVU107
  79:dfu.cpp       ****     virginity = false;
 491              		.loc 1 79 11 is_stmt 0 view .LVU108
 492 008c 0622     		movs	r2, #6
  80:dfu.cpp       **** }
 493              		.loc 1 80 15 view .LVU109
 494 008e 8371     		strb	r3, [r0, #6]
  79:dfu.cpp       ****     virginity = false;
 495              		.loc 1 79 11 view .LVU110
 496 0090 4271     		strb	r2, [r0, #5]
  80:dfu.cpp       **** }
 497              		.loc 1 80 5 is_stmt 1 view .LVU111
 498              	.LVL34:
  80:dfu.cpp       **** }
 499              		.loc 1 80 5 is_stmt 0 view .LVU112
 500              	.LBE178:
 501              	.LBE177:
 131:dfu.cpp       ****     } else if( pSetup->wLength == transfer_size ) {
 502              		.loc 1 131 9 is_stmt 1 view .LVU113
 503              	.L20:
 131:dfu.cpp       ****     } else if( pSetup->wLength == transfer_size ) {
 504              		.loc 1 131 9 is_stmt 0 view .LVU114
 505              	.LBE221:
 506              		.loc 1 154 1 view .LVU115
 507 0092 0120     		movs	r0, #1
 508 0094 02B0     		add	sp, sp, #8
 509              	.LCFI4:
 510              		.cfi_remember_state
 511              		.cfi_def_cfa_offset 24
 512              		@ sp needed
 513 0096 BDE8F081 		pop	{r4, r5, r6, r7, r8, pc}
 514              	.LVL35:
 515              	.L18:
 516              	.LCFI5:
 517              		.cfi_restore_state
 132:dfu.cpp       ****         if( (get_state() != DFUIDLE) && (get_state() != DFUDNLOAD_IDLE) ) {
 518              		.loc 1 132 12 is_stmt 1 view .LVU116
 519              	.LBB222:
 520              	.LBB179:
 521 009a B3F5807F 		cmp	r3, #256
 522 009e 40D1     		bne	.L21
 523              	.LBB173:
 133:dfu.cpp       ****             return error(ERRSTALLEDPKT);
 524              		.loc 1 133 9 view .LVU117
 525              	.LVL36:
 526              	.LBB174:
 527              	.LBI174:
  83:dfu.cpp       ****     return state;
 528              		.loc 1 83 9 view .LVU118
 529              	.LBB175:
ARM GAS  /tmp/cczxpNKW.s 			page 14


  84:dfu.cpp       **** }
 530              		.loc 1 84 5 view .LVU119
  84:dfu.cpp       **** }
 531              		.loc 1 84 12 is_stmt 0 view .LVU120
 532 00a0 4379     		ldrb	r3, [r0, #5]	@ zero_extendqisi2
 533              	.LVL37:
  84:dfu.cpp       **** }
 534              		.loc 1 84 12 view .LVU121
 535              	.LBE175:
 536              	.LBE174:
 133:dfu.cpp       ****             return error(ERRSTALLEDPKT);
 537              		.loc 1 133 38 view .LVU122
 538 00a2 022B     		cmp	r3, #2
 539 00a4 01D0     		beq	.L22
 540              	.LVL38:
 133:dfu.cpp       ****             return error(ERRSTALLEDPKT);
 541              		.loc 1 133 38 view .LVU123
 542              	.LBE173:
 543              	.LBE179:
 544              	.LBE222:
  84:dfu.cpp       **** }
 545              		.loc 1 84 5 is_stmt 1 view .LVU124
 546              	.LBB223:
 547              	.LBB180:
 548              	.LBB176:
 133:dfu.cpp       ****             return error(ERRSTALLEDPKT);
 549              		.loc 1 133 38 is_stmt 0 view .LVU125
 550 00a6 052B     		cmp	r3, #5
 551 00a8 E9D1     		bne	.L23
 552              	.L22:
 553              	.LVL39:
 133:dfu.cpp       ****             return error(ERRSTALLEDPKT);
 554              		.loc 1 133 38 view .LVU126
 555              	.LBE176:
 556              	.LBE180:
 557              	.LBE223:
 558              	.LBB224:
 559              	.LBI183:
 122:dfu.cpp       ****     if( pSetup->wLength == 0 ) {
 560              		.loc 1 122 6 is_stmt 1 view .LVU127
 561              	.LBB219:
 138:dfu.cpp       ****         const uint32_t flash_address = pSetup->wValue * transfer_size;
 562              		.loc 1 138 9 view .LVU128
 139:dfu.cpp       ****         const uint32_t source_address = reinterpret_cast<uint32_t>(pbData);
 563              		.loc 1 139 9 view .LVU129
 139:dfu.cpp       ****         const uint32_t source_address = reinterpret_cast<uint32_t>(pbData);
 564              		.loc 1 139 48 is_stmt 0 view .LVU130
 565 00aa 4D88     		ldrh	r5, [r1, #2]
 139:dfu.cpp       ****         const uint32_t source_address = reinterpret_cast<uint32_t>(pbData);
 566              		.loc 1 139 24 view .LVU131
 567 00ac 2D02     		lsls	r5, r5, #8
 568              	.LVL40:
 140:dfu.cpp       ****         if( memory_policy::write_permitted(flash_address) ) {
 569              		.loc 1 140 9 is_stmt 1 view .LVU132
 141:dfu.cpp       ****             if( flash.write(flash_address, source_address, length) ) {
 570              		.loc 1 141 9 view .LVU133
 141:dfu.cpp       ****             if( flash.write(flash_address, source_address, length) ) {
ARM GAS  /tmp/cczxpNKW.s 			page 15


 571              		.loc 1 141 9 is_stmt 0 view .LVU134
 572              	.LBE219:
 573              	.LBE224:
  29:dfu.cpp       ****     }
 574              		.loc 1 29 9 is_stmt 1 view .LVU135
 575              	.LBB225:
 576              	.LBB220:
 141:dfu.cpp       ****             if( flash.write(flash_address, source_address, length) ) {
 577              		.loc 1 141 9 is_stmt 0 view .LVU136
 578 00ae B5F5804F 		cmp	r5, #16384
 579 00b2 34D3     		bcc	.L24
 142:dfu.cpp       ****                 set_state(DFUDNLOAD_SYNC);
 580              		.loc 1 142 13 is_stmt 1 view .LVU137
 581              	.LBB185:
 582              	.LBB186:
 583              	.LBB187:
 584              	.LBB188:
 585              		.file 2 "flash.h"
   1:flash.h       **** /*
   2:flash.h       ****  * Copyright 2010, 2011 Michael Ossmann
   3:flash.h       ****  *
   4:flash.h       ****  * This file is part of Project Ubertooth.
   5:flash.h       ****  *
   6:flash.h       ****  * This program is free software; you can redistribute it and/or modify
   7:flash.h       ****  * it under the terms of the GNU General Public License as published by
   8:flash.h       ****  * the Free Software Foundation; either version 2, or (at your option)
   9:flash.h       ****  * any later version.
  10:flash.h       ****  *
  11:flash.h       ****  * This program is distributed in the hope that it will be useful,
  12:flash.h       ****  * but WITHOUT ANY WARRANTY; without even the implied warranty of
  13:flash.h       ****  * MERCHANTABILITY or FITNESS FOR A PARTICULAR PURPOSE.  See the
  14:flash.h       ****  * GNU General Public License for more details.
  15:flash.h       ****  *
  16:flash.h       ****  * You should have received a copy of the GNU General Public License
  17:flash.h       ****  * along with this program; see the file COPYING.  If not, write to
  18:flash.h       ****  * the Free Software Foundation, Inc., 51 Franklin Street,
  19:flash.h       ****  * Boston, MA 02110-1301, USA.
  20:flash.h       ****  */
  21:flash.h       **** 
  22:flash.h       **** #ifndef __FLASH_H_
  23:flash.h       **** #define __FLASH_H_
  24:flash.h       **** 
  25:flash.h       **** #include "iap.h"
  26:flash.h       **** 
  27:flash.h       **** class Flash {
  28:flash.h       **** public:
  29:flash.h       ****     bool write(const uint32_t flash_address, uint32_t source_address, uint32_t length) {
  30:flash.h       ****         IAP::ReturnCode result = IAP::CMD_SUCCESS;
  31:flash.h       ****         
  32:flash.h       ****         const uint32_t sector = sector_number(flash_address);
  33:flash.h       ****         if( at_sector_boundary(flash_address) ) {
  34:flash.h       ****             if( result == IAP::CMD_SUCCESS) {
  35:flash.h       ****                 result = iap.prepare_sectors_for_write_operation(sector, sector);
  36:flash.h       ****             }
  37:flash.h       ****             if( result == IAP::CMD_SUCCESS) {
  38:flash.h       ****                 result = iap.erase_sectors(sector, sector, cclk_khz);
  39:flash.h       ****             }
ARM GAS  /tmp/cczxpNKW.s 			page 16


  40:flash.h       ****         }
  41:flash.h       ****         
  42:flash.h       ****         if( result == IAP::CMD_SUCCESS) {
  43:flash.h       ****             result = iap.prepare_sectors_for_write_operation(sector, sector);
  44:flash.h       ****         }
  45:flash.h       ****         if( result == IAP::CMD_SUCCESS ) {
  46:flash.h       ****             iap.copy_ram_to_flash(flash_address, source_address, length, cclk_khz);
  47:flash.h       ****         }
  48:flash.h       ****         
  49:flash.h       ****         return (result == IAP::CMD_SUCCESS);
  50:flash.h       ****     }
  51:flash.h       ****     
  52:flash.h       ****     bool valid_address(const uint32_t address) const {
  53:flash.h       ****         return (address < 0x80000);
  54:flash.h       ****     }
  55:flash.h       ****     
  56:flash.h       **** private:
  57:flash.h       ****     IAP iap;
  58:flash.h       ****     
  59:flash.h       ****     static const uint32_t cclk_khz = 100000;
  60:flash.h       ****     
  61:flash.h       ****     bool at_sector_boundary(const uint32_t address) const {
  62:flash.h       ****         return (address & (sector_size(address) - 1)) == 0;
  63:flash.h       ****     }
  64:flash.h       ****     
  65:flash.h       ****     uint32_t sector_size(const uint32_t address) const {
  66:flash.h       ****         if( address < 0x10000 ) {
  67:flash.h       ****             return 4096;
  68:flash.h       ****         } else {
  69:flash.h       ****             return 32768;
  70:flash.h       ****         }
  71:flash.h       ****     }
  72:flash.h       ****                               
  73:flash.h       ****     uint32_t sector_number(const uint32_t address) const {
  74:flash.h       ****         if( address < 0x10000 ) {
 586              		.loc 2 74 9 is_stmt 0 view .LVU138
 587 00b4 B5F5803F 		cmp	r5, #65536
 588              	.LBE188:
 589              	.LBE187:
 590              	.LBB193:
 591              	.LBB194:
 592              	.LBB195:
 593              	.LBB196:
  67:flash.h       ****         } else {
 594              		.loc 2 67 20 view .LVU139
 595 00b8 32BF     		itee	cc
 596 00ba 4FF48053 		movcc	r3, #4096
  69:flash.h       ****         }
 597              		.loc 2 69 20 view .LVU140
 598 00be 4FF40043 		movcs	r3, #32768
 599              	.LBE196:
 600              	.LBE195:
 601              	.LBE194:
 602              	.LBE193:
 603              	.LBB204:
 604              	.LBB189:
  75:flash.h       ****             return address >> 12;
ARM GAS  /tmp/cczxpNKW.s 			page 17


  76:flash.h       ****         } else {
  77:flash.h       ****             return 14 + (address >> 15);
 605              		.loc 2 77 34 view .LVU141
 606 00c2 EE0B     		lsrcs	r6, r5, #15
 607              	.LBE189:
 608              	.LBE204:
 609              	.LBB205:
 610              	.LBB201:
  62:flash.h       ****     }
 611              		.loc 2 62 49 view .LVU142
 612 00c4 03F1FF33 		add	r3, r3, #-1
 613              	.LBE201:
 614              	.LBE205:
 615              	.LBB206:
 616              	.LBB190:
  75:flash.h       ****             return address >> 12;
 617              		.loc 2 75 31 view .LVU143
 618 00c8 34BF     		ite	cc
 619 00ca 2E0B     		lsrcc	r6, r5, #12
 620              		.loc 2 77 39 view .LVU144
 621 00cc 0E36     		addcs	r6, r6, #14
 622              	.LBE190:
 623              	.LBE206:
  33:flash.h       ****             if( result == IAP::CMD_SUCCESS) {
 624              		.loc 2 33 9 view .LVU145
 625 00ce 2B42     		tst	r3, r5
 626              	.LBE186:
 627              	.LBE185:
 142:dfu.cpp       ****                 set_state(DFUDNLOAD_SYNC);
 628              		.loc 1 142 17 view .LVU146
 629 00d0 2768     		ldr	r7, [r4]
 630              	.LVL41:
 631              	.LBB214:
 632              	.LBI185:
  29:flash.h       ****         IAP::ReturnCode result = IAP::CMD_SUCCESS;
 633              		.loc 2 29 10 is_stmt 1 view .LVU147
 634              	.LBB211:
  30:flash.h       ****         
 635              		.loc 2 30 9 view .LVU148
  32:flash.h       ****         if( at_sector_boundary(flash_address) ) {
 636              		.loc 2 32 9 view .LVU149
 637              	.LBB207:
 638              	.LBI187:
  73:flash.h       ****         if( address < 0x10000 ) {
 639              		.loc 2 73 14 view .LVU150
 640              	.LBB191:
  74:flash.h       ****             return address >> 12;
 641              		.loc 2 74 9 view .LVU151
  75:flash.h       ****         } else {
 642              		.loc 2 75 13 view .LVU152
  75:flash.h       ****         } else {
 643              		.loc 2 75 13 is_stmt 0 view .LVU153
 644              	.LBE191:
 645              	.LBE207:
  33:flash.h       ****             if( result == IAP::CMD_SUCCESS) {
 646              		.loc 2 33 9 is_stmt 1 view .LVU154
 647              	.LBB208:
ARM GAS  /tmp/cczxpNKW.s 			page 18


 648              	.LBI193:
  61:flash.h       ****         return (address & (sector_size(address) - 1)) == 0;
 649              		.loc 2 61 10 view .LVU155
 650              	.LBB202:
  62:flash.h       ****     }
 651              		.loc 2 62 9 view .LVU156
 652              	.LBB199:
 653              	.LBI195:
  65:flash.h       ****         if( address < 0x10000 ) {
 654              		.loc 2 65 14 view .LVU157
 655              	.LBB197:
  66:flash.h       ****             return 4096;
 656              		.loc 2 66 9 view .LVU158
 657              	.LBE197:
 658              	.LBE199:
 659              	.LBE202:
 660              	.LBE208:
 661              	.LBB209:
 662              	.LBB192:
 663              		.loc 2 77 13 view .LVU159
 664              		.loc 2 77 13 is_stmt 0 view .LVU160
 665              	.LBE192:
 666              	.LBE209:
  33:flash.h       ****             if( result == IAP::CMD_SUCCESS) {
 667              		.loc 2 33 9 is_stmt 1 view .LVU161
 668              	.LBB210:
  61:flash.h       ****         return (address & (sector_size(address) - 1)) == 0;
 669              		.loc 2 61 10 view .LVU162
 670              	.LBB203:
  62:flash.h       ****     }
 671              		.loc 2 62 9 view .LVU163
 672              	.LBB200:
  65:flash.h       ****         if( address < 0x10000 ) {
 673              		.loc 2 65 14 view .LVU164
 674              	.LBB198:
  66:flash.h       ****             return 4096;
 675              		.loc 2 66 9 view .LVU165
  66:flash.h       ****             return 4096;
 676              		.loc 2 66 9 is_stmt 0 view .LVU166
 677              	.LBE198:
 678              	.LBE200:
 679              	.LBE203:
 680              	.LBE210:
  33:flash.h       ****             if( result == IAP::CMD_SUCCESS) {
 681              		.loc 2 33 9 view .LVU167
 682 00d2 13D0     		beq	.L27
 683              	.LVL42:
 684              	.L31:
  43:flash.h       ****         }
 685              		.loc 2 43 13 is_stmt 1 view .LVU168
  43:flash.h       ****         }
 686              		.loc 2 43 61 is_stmt 0 view .LVU169
 687 00d4 3246     		mov	r2, r6
 688 00d6 3146     		mov	r1, r6
 689 00d8 3846     		mov	r0, r7
 690 00da FFF7FEFF 		bl	_ZN3IAP35prepare_sectors_for_write_operationEmm
 691              	.LVL43:
ARM GAS  /tmp/cczxpNKW.s 			page 19


  45:flash.h       ****             iap.copy_ram_to_flash(flash_address, source_address, length, cclk_khz);
 692              		.loc 2 45 9 is_stmt 1 view .LVU170
 693 00de 0646     		mov	r6, r0
 694              	.LVL44:
  45:flash.h       ****             iap.copy_ram_to_flash(flash_address, source_address, length, cclk_khz);
 695              		.loc 2 45 9 is_stmt 0 view .LVU171
 696 00e0 90B9     		cbnz	r0, .L29
  46:flash.h       ****         }
 697              		.loc 2 46 13 is_stmt 1 view .LVU172
  46:flash.h       ****         }
 698              		.loc 2 46 34 is_stmt 0 view .LVU173
 699 00e2 114B     		ldr	r3, .L40
 700 00e4 4246     		mov	r2, r8
 701 00e6 0093     		str	r3, [sp]
 702 00e8 2946     		mov	r1, r5
 703 00ea 4FF48073 		mov	r3, #256
 704 00ee 3846     		mov	r0, r7
 705              	.LVL45:
  46:flash.h       ****         }
 706              		.loc 2 46 34 view .LVU174
 707 00f0 FFF7FEFF 		bl	_ZN3IAP17copy_ram_to_flashEmmmm
 708              	.LVL46:
  49:flash.h       ****     }
 709              		.loc 2 49 9 is_stmt 1 view .LVU175
  49:flash.h       ****     }
 710              		.loc 2 49 9 is_stmt 0 view .LVU176
 711              	.LBE211:
 712              	.LBE214:
 143:dfu.cpp       ****             } else {
 713              		.loc 1 143 17 is_stmt 1 view .LVU177
 714              	.LBB215:
 715              	.LBI215:
  78:dfu.cpp       ****     state = new_state;
 716              		.loc 1 78 6 view .LVU178
 717              	.LBB216:
  79:dfu.cpp       ****     virginity = false;
 718              		.loc 1 79 5 view .LVU179
  79:dfu.cpp       ****     virginity = false;
 719              		.loc 1 79 11 is_stmt 0 view .LVU180
 720 00f4 0323     		movs	r3, #3
  80:dfu.cpp       **** }
 721              		.loc 1 80 15 view .LVU181
 722 00f6 A671     		strb	r6, [r4, #6]
  79:dfu.cpp       ****     virginity = false;
 723              		.loc 1 79 11 view .LVU182
 724 00f8 6371     		strb	r3, [r4, #5]
  80:dfu.cpp       **** }
 725              		.loc 1 80 5 is_stmt 1 view .LVU183
 726              	.LVL47:
  80:dfu.cpp       **** }
 727              		.loc 1 80 5 is_stmt 0 view .LVU184
 728              	.LBE216:
 729              	.LBE215:
 147:dfu.cpp       ****         } else {
 730              		.loc 1 147 13 is_stmt 1 view .LVU185
 147:dfu.cpp       ****         } else {
 731              		.loc 1 147 20 is_stmt 0 view .LVU186
ARM GAS  /tmp/cczxpNKW.s 			page 20


 732 00fa CAE7     		b	.L20
 733              	.LVL48:
 734              	.L27:
 735              	.LBB217:
 736              	.LBB212:
  34:flash.h       ****                 result = iap.prepare_sectors_for_write_operation(sector, sector);
 737              		.loc 2 34 13 is_stmt 1 view .LVU187
  35:flash.h       ****             }
 738              		.loc 2 35 17 view .LVU188
  35:flash.h       ****             }
 739              		.loc 2 35 65 is_stmt 0 view .LVU189
 740 00fc 3246     		mov	r2, r6
 741              	.LVL49:
  35:flash.h       ****             }
 742              		.loc 2 35 65 view .LVU190
 743 00fe 3146     		mov	r1, r6
 744              	.LVL50:
  35:flash.h       ****             }
 745              		.loc 2 35 65 view .LVU191
 746 0100 3846     		mov	r0, r7
 747              	.LVL51:
  35:flash.h       ****             }
 748              		.loc 2 35 65 view .LVU192
 749 0102 FFF7FEFF 		bl	_ZN3IAP35prepare_sectors_for_write_operationEmm
 750              	.LVL52:
  37:flash.h       ****                 result = iap.erase_sectors(sector, sector, cclk_khz);
 751              		.loc 2 37 13 is_stmt 1 view .LVU193
 752 0106 08B1     		cbz	r0, .L30
 753              	.LVL53:
 754              	.L29:
  49:flash.h       ****     }
 755              		.loc 2 49 9 view .LVU194
  49:flash.h       ****     }
 756              		.loc 2 49 9 is_stmt 0 view .LVU195
 757              	.LBE212:
 758              	.LBE217:
 145:dfu.cpp       ****             }
 759              		.loc 1 145 17 is_stmt 1 view .LVU196
 145:dfu.cpp       ****             }
 760              		.loc 1 145 29 is_stmt 0 view .LVU197
 761 0108 0621     		movs	r1, #6
 762 010a B9E7     		b	.L39
 763              	.LVL54:
 764              	.L30:
 765              	.LBB218:
 766              	.LBB213:
  38:flash.h       ****             }
 767              		.loc 2 38 17 is_stmt 1 view .LVU198
  38:flash.h       ****             }
 768              		.loc 2 38 43 is_stmt 0 view .LVU199
 769 010c 3246     		mov	r2, r6
 770 010e 3146     		mov	r1, r6
 771 0110 3846     		mov	r0, r7
 772              	.LVL55:
  38:flash.h       ****             }
 773              		.loc 2 38 43 view .LVU200
 774 0112 054B     		ldr	r3, .L40
ARM GAS  /tmp/cczxpNKW.s 			page 21


 775 0114 FFF7FEFF 		bl	_ZN3IAP13erase_sectorsEmmm
 776              	.LVL56:
  42:flash.h       ****             result = iap.prepare_sectors_for_write_operation(sector, sector);
 777              		.loc 2 42 9 is_stmt 1 view .LVU201
 778 0118 0028     		cmp	r0, #0
 779 011a DBD0     		beq	.L31
 780 011c F4E7     		b	.L29
 781              	.LVL57:
 782              	.L24:
  42:flash.h       ****             result = iap.prepare_sectors_for_write_operation(sector, sector);
 783              		.loc 2 42 9 is_stmt 0 view .LVU202
 784              	.LBE213:
 785              	.LBE218:
 149:dfu.cpp       ****         }
 786              		.loc 1 149 13 is_stmt 1 view .LVU203
 149:dfu.cpp       ****         }
 787              		.loc 1 149 25 is_stmt 0 view .LVU204
 788 011e 0321     		movs	r1, #3
 789              	.LVL58:
 149:dfu.cpp       ****         }
 790              		.loc 1 149 25 view .LVU205
 791 0120 AEE7     		b	.L39
 792              	.LVL59:
 793              	.L21:
 149:dfu.cpp       ****         }
 794              		.loc 1 149 25 view .LVU206
 795              	.LBE220:
 796              	.LBE225:
 797              	.LBB226:
 798              	.LBB181:
 152:dfu.cpp       ****     }
 799              		.loc 1 152 9 is_stmt 1 view .LVU207
 152:dfu.cpp       ****     }
 800              		.loc 1 152 21 is_stmt 0 view .LVU208
 801 0122 0E21     		movs	r1, #14
 802              	.LVL60:
 152:dfu.cpp       ****     }
 803              		.loc 1 152 21 view .LVU209
 804 0124 ADE7     		b	.L38
 805              	.L41:
 806 0126 00BF     		.align	2
 807              	.L40:
 808 0128 A0860100 		.word	100000
 809              	.LBE181:
 810              	.LBE226:
 811              		.cfi_endproc
 812              	.LFE20:
 813              		.size	_ZN3DFU14request_dnloadEP12TSetupPacketPmPh, .-_ZN3DFU14request_dnloadEP12TSetupPacketPmPh
 814              		.align	1
 815              		.global	_ZN3DFU14request_uploadEP12TSetupPacketPmPh
 816              		.syntax unified
 817              		.thumb
 818              		.thumb_func
 819              		.fpu softvfp
 820              		.type	_ZN3DFU14request_uploadEP12TSetupPacketPmPh, %function
 821              	_ZN3DFU14request_uploadEP12TSetupPacketPmPh:
 822              	.LVL61:
ARM GAS  /tmp/cczxpNKW.s 			page 22


 823              	.LFB21:
 155:dfu.cpp       **** 
 156:dfu.cpp       **** bool DFU::request_upload(TSetupPacket *pSetup, uint32_t *piLen, uint8_t* pbData) {
 824              		.loc 1 156 82 is_stmt 1 view -0
 825              		.cfi_startproc
 826              		@ args = 0, pretend = 0, frame = 0
 827              		@ frame_needed = 0, uses_anonymous_args = 0
 828              		.loc 1 156 82 is_stmt 0 view .LVU211
 829 012c 70B5     		push	{r4, r5, r6, lr}
 830              	.LCFI6:
 831              		.cfi_def_cfa_offset 16
 832              		.cfi_offset 4, -16
 833              		.cfi_offset 5, -12
 834              		.cfi_offset 6, -8
 835              		.cfi_offset 14, -4
 836              		.loc 1 156 82 view .LVU212
 837 012e 1546     		mov	r5, r2
 838              	.LBB247:
 157:dfu.cpp       ****     if( pSetup->wLength == transfer_size ) {
 839              		.loc 1 157 5 view .LVU213
 840 0130 CA88     		ldrh	r2, [r1, #6]
 841              	.LVL62:
 842              		.loc 1 157 5 view .LVU214
 843              	.LBE247:
 156:dfu.cpp       ****     if( pSetup->wLength == transfer_size ) {
 844              		.loc 1 156 82 view .LVU215
 845 0132 0446     		mov	r4, r0
 846              		.loc 1 157 5 is_stmt 1 view .LVU216
 847              	.LBB262:
 848 0134 B2F5807F 		cmp	r2, #256
 849 0138 12D1     		bne	.L43
 850              	.LBB248:
 158:dfu.cpp       ****         if( (get_state() != DFUIDLE) && (get_state() != DFUUPLOAD_IDLE) ) {
 851              		.loc 1 158 9 view .LVU217
 852              	.LVL63:
 853              	.LBB249:
 854              	.LBI249:
  83:dfu.cpp       ****     return state;
 855              		.loc 1 83 9 view .LVU218
 856              	.LBB250:
  84:dfu.cpp       **** }
 857              		.loc 1 84 5 view .LVU219
  84:dfu.cpp       **** }
 858              		.loc 1 84 12 is_stmt 0 view .LVU220
 859 013a 4279     		ldrb	r2, [r0, #5]	@ zero_extendqisi2
 860              	.LVL64:
  84:dfu.cpp       **** }
 861              		.loc 1 84 12 view .LVU221
 862              	.LBE250:
 863              	.LBE249:
 864              		.loc 1 158 38 view .LVU222
 865 013c 022A     		cmp	r2, #2
 866 013e 06D0     		beq	.L44
 867              	.LVL65:
 868              		.loc 1 158 38 view .LVU223
 869              	.LBE248:
 870              	.LBE262:
ARM GAS  /tmp/cczxpNKW.s 			page 23


  84:dfu.cpp       **** }
 871              		.loc 1 84 5 is_stmt 1 view .LVU224
 872              	.LBB263:
 873              	.LBB257:
 874              		.loc 1 158 38 is_stmt 0 view .LVU225
 875 0140 092A     		cmp	r2, #9
 876 0142 04D0     		beq	.L44
 877              	.LBE257:
 878              	.LBE263:
 879              	.LBB264:
 880              	.LBI264:
 156:dfu.cpp       ****     if( pSetup->wLength == transfer_size ) {
 881              		.loc 1 156 6 is_stmt 1 view .LVU226
 882              	.LVL66:
 883              	.LBB265:
 159:dfu.cpp       ****             return error(ERRSTALLEDPKT);
 884              		.loc 1 159 13 view .LVU227
 885              		.loc 1 159 25 is_stmt 0 view .LVU228
 886 0144 0F21     		movs	r1, #15
 887              	.LVL67:
 888              	.L55:
 889              		.loc 1 159 25 view .LVU229
 890              	.LBE265:
 891              	.LBE264:
 160:dfu.cpp       ****         }
 161:dfu.cpp       ****         
 162:dfu.cpp       ****         const uint32_t length = pSetup->wLength;
 163:dfu.cpp       ****         const uint32_t flash_address_start = pSetup->wValue * transfer_size;
 164:dfu.cpp       ****         const uint32_t flash_address_end = flash_address_start + length;
 165:dfu.cpp       ****         if( flash.valid_address(flash_address_start) && flash.valid_address(flash_address_end - 1) 
 166:dfu.cpp       ****             memcpy(pbData, reinterpret_cast<const void*>(flash_address_start), length);
 167:dfu.cpp       ****             *piLen = length;
 168:dfu.cpp       ****             set_state(DFUIDLE);
 169:dfu.cpp       ****             return true;
 170:dfu.cpp       ****         } else {
 171:dfu.cpp       ****             return error(ERRADDRESS);
 172:dfu.cpp       ****         }
 173:dfu.cpp       ****     } else {
 174:dfu.cpp       ****         return error(ERRUNKNOWN);
 175:dfu.cpp       ****     }
 176:dfu.cpp       **** }
 892              		.loc 1 176 1 view .LVU230
 893 0146 BDE87040 		pop	{r4, r5, r6, lr}
 894              	.LCFI7:
 895              		.cfi_remember_state
 896              		.cfi_restore 14
 897              		.cfi_restore 6
 898              		.cfi_restore 5
 899              		.cfi_restore 4
 900              		.cfi_def_cfa_offset 0
 901              	.LVL68:
 902              	.LBB266:
 174:dfu.cpp       ****     }
 903              		.loc 1 174 21 view .LVU231
 904 014a FFF7FEBF 		b	_ZN3DFU5errorENS_6StatusE
 905              	.LVL69:
 906              	.L44:
ARM GAS  /tmp/cczxpNKW.s 			page 24


 907              	.LCFI8:
 908              		.cfi_restore_state
 909              	.LBB258:
 162:dfu.cpp       ****         const uint32_t flash_address_start = pSetup->wValue * transfer_size;
 910              		.loc 1 162 9 is_stmt 1 discriminator 4 view .LVU232
 163:dfu.cpp       ****         const uint32_t flash_address_end = flash_address_start + length;
 911              		.loc 1 163 9 discriminator 4 view .LVU233
 163:dfu.cpp       ****         const uint32_t flash_address_end = flash_address_start + length;
 912              		.loc 1 163 54 is_stmt 0 discriminator 4 view .LVU234
 913 014e 4A88     		ldrh	r2, [r1, #2]
 165:dfu.cpp       ****             memcpy(pbData, reinterpret_cast<const void*>(flash_address_start), length);
 914              		.loc 1 165 54 discriminator 4 view .LVU235
 915 0150 B2F5006F 		cmp	r2, #2048
 163:dfu.cpp       ****         const uint32_t flash_address_end = flash_address_start + length;
 916              		.loc 1 163 24 discriminator 4 view .LVU236
 917 0154 4FEA0221 		lsl	r1, r2, #8
 918              	.LVL70:
 164:dfu.cpp       ****         if( flash.valid_address(flash_address_start) && flash.valid_address(flash_address_end - 1) 
 919              		.loc 1 164 9 is_stmt 1 discriminator 4 view .LVU237
 165:dfu.cpp       ****             memcpy(pbData, reinterpret_cast<const void*>(flash_address_start), length);
 920              		.loc 1 165 9 discriminator 4 view .LVU238
 165:dfu.cpp       ****             memcpy(pbData, reinterpret_cast<const void*>(flash_address_start), length);
 921              		.loc 1 165 9 is_stmt 0 discriminator 4 view .LVU239
 922              	.LBE258:
 923              	.LBE266:
  53:flash.h       ****     }
 924              		.loc 2 53 9 is_stmt 1 discriminator 4 view .LVU240
 925              	.LBB267:
 926              	.LBB259:
 165:dfu.cpp       ****             memcpy(pbData, reinterpret_cast<const void*>(flash_address_start), length);
 927              		.loc 1 165 54 is_stmt 0 discriminator 4 view .LVU241
 928 0158 04D3     		bcc	.L54
 171:dfu.cpp       ****         }
 929              		.loc 1 171 13 is_stmt 1 discriminator 4 view .LVU242
 171:dfu.cpp       ****         }
 930              		.loc 1 171 25 is_stmt 0 discriminator 4 view .LVU243
 931 015a 0821     		movs	r1, #8
 932              	.LVL71:
 171:dfu.cpp       ****         }
 933              		.loc 1 171 25 discriminator 4 view .LVU244
 934 015c 2046     		mov	r0, r4
 935              	.LVL72:
 171:dfu.cpp       ****         }
 936              		.loc 1 171 25 discriminator 4 view .LVU245
 937 015e F2E7     		b	.L55
 938              	.LVL73:
 939              	.L43:
 171:dfu.cpp       ****         }
 940              		.loc 1 171 25 discriminator 4 view .LVU246
 941              	.LBE259:
 174:dfu.cpp       ****     }
 942              		.loc 1 174 9 is_stmt 1 view .LVU247
 174:dfu.cpp       ****     }
 943              		.loc 1 174 21 is_stmt 0 view .LVU248
 944 0160 0E21     		movs	r1, #14
 945              	.LVL74:
 174:dfu.cpp       ****     }
ARM GAS  /tmp/cczxpNKW.s 			page 25


 946              		.loc 1 174 21 view .LVU249
 947 0162 F0E7     		b	.L55
 948              	.LVL75:
 949              	.L54:
 174:dfu.cpp       ****     }
 950              		.loc 1 174 21 view .LVU250
 951              	.LBE267:
  53:flash.h       ****     }
 952              		.loc 2 53 9 is_stmt 1 discriminator 1 view .LVU251
 953              	.LBB268:
 954              	.LBB260:
 166:dfu.cpp       ****             *piLen = length;
 955              		.loc 1 166 13 discriminator 1 view .LVU252
 166:dfu.cpp       ****             *piLen = length;
 956              		.loc 1 166 19 is_stmt 0 discriminator 1 view .LVU253
 957 0164 4FF48076 		mov	r6, #256
 958 0168 1846     		mov	r0, r3
 959              	.LVL76:
 166:dfu.cpp       ****             *piLen = length;
 960              		.loc 1 166 19 discriminator 1 view .LVU254
 961 016a 3246     		mov	r2, r6
 962 016c FFF7FEFF 		bl	memcpy
 963              	.LVL77:
 167:dfu.cpp       ****             set_state(DFUIDLE);
 964              		.loc 1 167 13 is_stmt 1 discriminator 1 view .LVU255
 965              	.LBB251:
 966              	.LBB252:
  79:dfu.cpp       ****     virginity = false;
 967              		.loc 1 79 11 is_stmt 0 discriminator 1 view .LVU256
 968 0170 0223     		movs	r3, #2
 969              	.LBE252:
 970              	.LBE251:
 167:dfu.cpp       ****             set_state(DFUIDLE);
 971              		.loc 1 167 20 discriminator 1 view .LVU257
 972 0172 2E60     		str	r6, [r5]
 168:dfu.cpp       ****             return true;
 973              		.loc 1 168 13 is_stmt 1 discriminator 1 view .LVU258
 974              	.LVL78:
 975              	.LBB255:
 976              	.LBI251:
  78:dfu.cpp       ****     state = new_state;
 977              		.loc 1 78 6 discriminator 1 view .LVU259
 978              	.LBB253:
  79:dfu.cpp       ****     virginity = false;
 979              		.loc 1 79 5 discriminator 1 view .LVU260
  79:dfu.cpp       ****     virginity = false;
 980              		.loc 1 79 11 is_stmt 0 discriminator 1 view .LVU261
 981 0174 6371     		strb	r3, [r4, #5]
  80:dfu.cpp       **** }
 982              		.loc 1 80 5 is_stmt 1 discriminator 1 view .LVU262
  80:dfu.cpp       **** }
 983              		.loc 1 80 15 is_stmt 0 discriminator 1 view .LVU263
 984 0176 0023     		movs	r3, #0
 985              	.LBE253:
 986              	.LBE255:
 987              	.LBE260:
 988              	.LBE268:
ARM GAS  /tmp/cczxpNKW.s 			page 26


 989              		.loc 1 176 1 discriminator 1 view .LVU264
 990 0178 0120     		movs	r0, #1
 991              	.LBB269:
 992              	.LBB261:
 993              	.LBB256:
 994              	.LBB254:
  80:dfu.cpp       **** }
 995              		.loc 1 80 15 discriminator 1 view .LVU265
 996 017a A371     		strb	r3, [r4, #6]
 997              	.LVL79:
  80:dfu.cpp       **** }
 998              		.loc 1 80 15 discriminator 1 view .LVU266
 999              	.LBE254:
 1000              	.LBE256:
 169:dfu.cpp       ****         } else {
 1001              		.loc 1 169 13 is_stmt 1 discriminator 1 view .LVU267
 1002              	.LBE261:
 1003              	.LBE269:
 1004              		.loc 1 176 1 is_stmt 0 discriminator 1 view .LVU268
 1005 017c 70BD     		pop	{r4, r5, r6, pc}
 1006              		.loc 1 176 1 discriminator 1 view .LVU269
 1007              		.cfi_endproc
 1008              	.LFE21:
 1009              		.size	_ZN3DFU14request_uploadEP12TSetupPacketPmPh, .-_ZN3DFU14request_uploadEP12TSetupPacketPmPh
 1010              		.align	1
 1011              		.global	_ZN3DFU17request_getstatusEP12TSetupPacketPmPh
 1012              		.syntax unified
 1013              		.thumb
 1014              		.thumb_func
 1015              		.fpu softvfp
 1016              		.type	_ZN3DFU17request_getstatusEP12TSetupPacketPmPh, %function
 1017              	_ZN3DFU17request_getstatusEP12TSetupPacketPmPh:
 1018              	.LVL80:
 1019              	.LFB22:
 177:dfu.cpp       **** 
 178:dfu.cpp       **** bool DFU::request_getstatus(TSetupPacket *pSetup, uint32_t *piLen, uint8_t* pbData) {
 1020              		.loc 1 178 85 is_stmt 1 view -0
 1021              		.cfi_startproc
 1022              		@ args = 0, pretend = 0, frame = 0
 1023              		@ frame_needed = 0, uses_anonymous_args = 0
 179:dfu.cpp       ****     if( (pSetup->wValue == 0) && (pSetup->wLength == 6) ) {
 1024              		.loc 1 179 5 view .LVU271
 178:dfu.cpp       ****     if( (pSetup->wValue == 0) && (pSetup->wLength == 6) ) {
 1025              		.loc 1 178 85 is_stmt 0 view .LVU272
 1026 017e 10B5     		push	{r4, lr}
 1027              	.LCFI9:
 1028              		.cfi_def_cfa_offset 8
 1029              		.cfi_offset 4, -8
 1030              		.cfi_offset 14, -4
 1031              		.loc 1 179 5 view .LVU273
 1032 0180 4C88     		ldrh	r4, [r1, #2]
 1033 0182 DCB9     		cbnz	r4, .L61
 1034              		.loc 1 179 31 discriminator 1 view .LVU274
 1035 0184 C988     		ldrh	r1, [r1, #6]
 1036              	.LVL81:
 1037              		.loc 1 179 31 discriminator 1 view .LVU275
 1038 0186 0629     		cmp	r1, #6
ARM GAS  /tmp/cczxpNKW.s 			page 27


 1039 0188 1AD1     		bne	.L62
 180:dfu.cpp       ****         switch( get_state() ) {
 1040              		.loc 1 180 9 is_stmt 1 view .LVU276
 1041              	.LVL82:
 1042              	.LBB288:
 1043              	.LBI288:
  83:dfu.cpp       ****     return state;
 1044              		.loc 1 83 9 view .LVU277
 1045              	.LBB289:
  84:dfu.cpp       **** }
 1046              		.loc 1 84 5 view .LVU278
  84:dfu.cpp       **** }
 1047              		.loc 1 84 12 is_stmt 0 view .LVU279
 1048 018a 4179     		ldrb	r1, [r0, #5]	@ zero_extendqisi2
 1049              	.LVL83:
  84:dfu.cpp       **** }
 1050              		.loc 1 84 12 view .LVU280
 1051              	.LBE289:
 1052              	.LBE288:
 1053              		.loc 1 180 9 view .LVU281
 1054 018c 0329     		cmp	r1, #3
 1055 018e 0FD0     		beq	.L58
 1056 0190 0629     		cmp	r1, #6
 1057 0192 11D0     		beq	.L59
 1058              	.L60:
 1059              	.LVL84:
 1060              	.LBB290:
 1061              	.LBI290:
 178:dfu.cpp       ****     if( (pSetup->wValue == 0) && (pSetup->wLength == 6) ) {
 1062              		.loc 1 178 6 is_stmt 1 view .LVU282
 1063              	.LBB291:
 181:dfu.cpp       ****             case DFUDNLOAD_SYNC:
 182:dfu.cpp       ****                 set_state(DFUDNLOAD_IDLE);
 183:dfu.cpp       ****                 break;
 184:dfu.cpp       ****                 
 185:dfu.cpp       ****             case DFUMANIFEST_SYNC:
 186:dfu.cpp       ****                 set_state(DFUIDLE);
 187:dfu.cpp       ****                 break;
 188:dfu.cpp       ****                 
 189:dfu.cpp       ****             default:
 190:dfu.cpp       ****                 break;
 191:dfu.cpp       ****         }
 192:dfu.cpp       ****         
 193:dfu.cpp       ****         pbData[0] = get_status();
 1064              		.loc 1 193 9 view .LVU283
 1065              	.LBB292:
 1066              	.LBI292:
  91:dfu.cpp       ****     return status;
 1067              		.loc 1 91 9 view .LVU284
 1068              	.LBB293:
  92:dfu.cpp       **** }
 1069              		.loc 1 92 5 view .LVU285
  92:dfu.cpp       **** }
 1070              		.loc 1 92 12 is_stmt 0 view .LVU286
 1071 0194 0179     		ldrb	r1, [r0, #4]	@ zero_extendqisi2
 1072              	.LVL85:
  92:dfu.cpp       **** }
ARM GAS  /tmp/cczxpNKW.s 			page 28


 1073              		.loc 1 92 12 view .LVU287
 1074              	.LBE293:
 1075              	.LBE292:
 1076              		.loc 1 193 19 view .LVU288
 1077 0196 1970     		strb	r1, [r3]
 194:dfu.cpp       ****         pbData[1] = (get_poll_timeout() >>  0) & 0xFF;
 1078              		.loc 1 194 9 is_stmt 1 view .LVU289
 1079              	.LVL86:
 1080              		.loc 1 194 9 is_stmt 0 view .LVU290
 1081              	.LBE291:
 1082              	.LBE290:
 109:dfu.cpp       **** }
 1083              		.loc 1 109 5 is_stmt 1 view .LVU291
 1084              	.LBB300:
 1085              	.LBB296:
 1086              		.loc 1 194 19 is_stmt 0 view .LVU292
 1087 0198 1421     		movs	r1, #20
 1088 019a 5970     		strb	r1, [r3, #1]
 195:dfu.cpp       ****         pbData[2] = (get_poll_timeout() >>  8) & 0xFF;
 1089              		.loc 1 195 9 is_stmt 1 view .LVU293
 1090              	.LVL87:
 1091              		.loc 1 195 9 is_stmt 0 view .LVU294
 1092              	.LBE296:
 1093              	.LBE300:
 109:dfu.cpp       **** }
 1094              		.loc 1 109 5 is_stmt 1 view .LVU295
 1095              	.LBB301:
 1096              	.LBB297:
 1097              		.loc 1 195 19 is_stmt 0 view .LVU296
 1098 019c 0021     		movs	r1, #0
 1099 019e 9970     		strb	r1, [r3, #2]
 196:dfu.cpp       ****         pbData[3] = (get_poll_timeout() >> 16) & 0xFF;
 1100              		.loc 1 196 9 is_stmt 1 view .LVU297
 1101              	.LVL88:
 1102              		.loc 1 196 9 is_stmt 0 view .LVU298
 1103              	.LBE297:
 1104              	.LBE301:
 109:dfu.cpp       **** }
 1105              		.loc 1 109 5 is_stmt 1 view .LVU299
 1106              	.LBB302:
 1107              	.LBB298:
 1108              		.loc 1 196 19 is_stmt 0 view .LVU300
 1109 01a0 D970     		strb	r1, [r3, #3]
 197:dfu.cpp       ****         pbData[4] = get_state();
 1110              		.loc 1 197 9 is_stmt 1 view .LVU301
 1111              	.LVL89:
 1112              	.LBB294:
 1113              	.LBI294:
  83:dfu.cpp       ****     return state;
 1114              		.loc 1 83 9 view .LVU302
 1115              	.LBB295:
  84:dfu.cpp       **** }
 1116              		.loc 1 84 5 view .LVU303
  84:dfu.cpp       **** }
 1117              		.loc 1 84 12 is_stmt 0 view .LVU304
 1118 01a2 4079     		ldrb	r0, [r0, #5]	@ zero_extendqisi2
 1119              	.LVL90:
ARM GAS  /tmp/cczxpNKW.s 			page 29


  84:dfu.cpp       **** }
 1120              		.loc 1 84 12 view .LVU305
 1121              	.LBE295:
 1122              	.LBE294:
 198:dfu.cpp       ****         pbData[5] = get_status_string_id();
 1123              		.loc 1 198 19 view .LVU306
 1124 01a4 5971     		strb	r1, [r3, #5]
 197:dfu.cpp       ****         pbData[5] = get_status_string_id();
 1125              		.loc 1 197 19 view .LVU307
 1126 01a6 1871     		strb	r0, [r3, #4]
 1127              		.loc 1 198 9 is_stmt 1 view .LVU308
 1128              	.LVL91:
 1129              		.loc 1 198 9 is_stmt 0 view .LVU309
 1130              	.LBE298:
 1131              	.LBE302:
 105:dfu.cpp       **** }
 1132              		.loc 1 105 5 is_stmt 1 view .LVU310
 1133              	.LBB303:
 1134              	.LBB299:
 199:dfu.cpp       ****         *piLen = 6;
 1135              		.loc 1 199 9 view .LVU311
 1136              		.loc 1 199 16 is_stmt 0 view .LVU312
 1137 01a8 0623     		movs	r3, #6
 1138              	.LVL92:
 1139              		.loc 1 199 16 view .LVU313
 1140 01aa 0120     		movs	r0, #1
 1141 01ac 1360     		str	r3, [r2]
 200:dfu.cpp       ****         return true;
 1142              		.loc 1 200 9 is_stmt 1 view .LVU314
 1143              	.LVL93:
 1144              	.L57:
 1145              		.loc 1 200 9 is_stmt 0 view .LVU315
 1146              	.LBE299:
 1147              	.LBE303:
 201:dfu.cpp       ****     } else {
 202:dfu.cpp       ****         return false;
 203:dfu.cpp       ****     }
 204:dfu.cpp       **** }
 1148              		.loc 1 204 1 view .LVU316
 1149 01ae 10BD     		pop	{r4, pc}
 1150              	.LVL94:
 1151              	.L58:
 181:dfu.cpp       ****                 set_state(DFUDNLOAD_IDLE);
 1152              		.loc 1 181 13 is_stmt 1 view .LVU317
 182:dfu.cpp       ****                 break;
 1153              		.loc 1 182 17 view .LVU318
 1154              	.LBB304:
 1155              	.LBI304:
  78:dfu.cpp       ****     state = new_state;
 1156              		.loc 1 78 6 view .LVU319
 1157              	.LBB305:
  79:dfu.cpp       ****     virginity = false;
 1158              		.loc 1 79 5 view .LVU320
  79:dfu.cpp       ****     virginity = false;
 1159              		.loc 1 79 11 is_stmt 0 view .LVU321
 1160 01b0 0521     		movs	r1, #5
 1161              	.LVL95:
ARM GAS  /tmp/cczxpNKW.s 			page 30


 1162              	.L63:
  79:dfu.cpp       ****     virginity = false;
 1163              		.loc 1 79 11 view .LVU322
 1164              	.LBE305:
 1165              	.LBE304:
 1166              	.LBB306:
 1167              	.LBB307:
 1168 01b2 4171     		strb	r1, [r0, #5]
  80:dfu.cpp       **** }
 1169              		.loc 1 80 5 is_stmt 1 view .LVU323
  80:dfu.cpp       **** }
 1170              		.loc 1 80 15 is_stmt 0 view .LVU324
 1171 01b4 8471     		strb	r4, [r0, #6]
  81:dfu.cpp       **** 
 1172              		.loc 1 81 1 view .LVU325
 1173 01b6 EDE7     		b	.L60
 1174              	.L59:
  81:dfu.cpp       **** 
 1175              		.loc 1 81 1 view .LVU326
 1176              	.LBE307:
 1177              	.LBE306:
 185:dfu.cpp       ****                 set_state(DFUIDLE);
 1178              		.loc 1 185 13 is_stmt 1 view .LVU327
 186:dfu.cpp       ****                 break;
 1179              		.loc 1 186 17 view .LVU328
 1180              	.LVL96:
 1181              	.LBB309:
 1182              	.LBI306:
  78:dfu.cpp       ****     state = new_state;
 1183              		.loc 1 78 6 view .LVU329
 1184              	.LBB308:
  79:dfu.cpp       ****     virginity = false;
 1185              		.loc 1 79 5 view .LVU330
  79:dfu.cpp       ****     virginity = false;
 1186              		.loc 1 79 11 is_stmt 0 view .LVU331
 1187 01b8 0221     		movs	r1, #2
 1188 01ba FAE7     		b	.L63
 1189              	.LVL97:
 1190              	.L61:
  79:dfu.cpp       ****     virginity = false;
 1191              		.loc 1 79 11 view .LVU332
 1192              	.LBE308:
 1193              	.LBE309:
 202:dfu.cpp       ****     }
 1194              		.loc 1 202 16 view .LVU333
 1195 01bc 0020     		movs	r0, #0
 1196              	.LVL98:
 202:dfu.cpp       ****     }
 1197              		.loc 1 202 16 view .LVU334
 1198 01be F6E7     		b	.L57
 1199              	.LVL99:
 1200              	.L62:
 202:dfu.cpp       ****     }
 1201              		.loc 1 202 16 view .LVU335
 1202 01c0 2046     		mov	r0, r4
 1203              	.LVL100:
 202:dfu.cpp       ****     }
ARM GAS  /tmp/cczxpNKW.s 			page 31


 1204              		.loc 1 202 16 view .LVU336
 1205 01c2 F4E7     		b	.L57
 1206              		.cfi_endproc
 1207              	.LFE22:
 1208              		.size	_ZN3DFU17request_getstatusEP12TSetupPacketPmPh, .-_ZN3DFU17request_getstatusEP12TSetupPacket
 1209              		.align	1
 1210              		.global	_ZN3DFU17request_clrstatusEP12TSetupPacketPmPh
 1211              		.syntax unified
 1212              		.thumb
 1213              		.thumb_func
 1214              		.fpu softvfp
 1215              		.type	_ZN3DFU17request_clrstatusEP12TSetupPacketPmPh, %function
 1216              	_ZN3DFU17request_clrstatusEP12TSetupPacketPmPh:
 1217              	.LVL101:
 1218              	.LFB23:
 205:dfu.cpp       **** 
 206:dfu.cpp       **** bool DFU::request_clrstatus(TSetupPacket *pSetup, uint32_t *piLen, uint8_t* pbData) {
 1219              		.loc 1 206 85 is_stmt 1 view -0
 1220              		.cfi_startproc
 1221              		@ args = 0, pretend = 0, frame = 0
 1222              		@ frame_needed = 0, uses_anonymous_args = 0
 1223              		@ link register save eliminated.
 207:dfu.cpp       ****     if( (pSetup->wValue == 0) && (pSetup->wLength == 0) ) {
 1224              		.loc 1 207 5 view .LVU338
 1225 01c4 4B88     		ldrh	r3, [r1, #2]
 1226              	.LVL102:
 1227              		.loc 1 207 5 is_stmt 0 view .LVU339
 1228 01c6 23B9     		cbnz	r3, .L65
 1229              		.loc 1 207 31 discriminator 1 view .LVU340
 1230 01c8 CB88     		ldrh	r3, [r1, #6]
 1231 01ca 13B9     		cbnz	r3, .L65
 208:dfu.cpp       ****         if( get_state() == DFUERROR ) {
 1232              		.loc 1 208 9 is_stmt 1 view .LVU341
 1233              	.LVL103:
 1234              	.LBB324:
 1235              	.LBI324:
  83:dfu.cpp       ****     return state;
 1236              		.loc 1 83 9 view .LVU342
 1237              	.LBB325:
  84:dfu.cpp       **** }
 1238              		.loc 1 84 5 view .LVU343
  84:dfu.cpp       **** }
 1239              		.loc 1 84 5 is_stmt 0 view .LVU344
 1240              	.LBE325:
 1241              	.LBE324:
 1242              		.loc 1 208 9 view .LVU345
 1243 01cc 4279     		ldrb	r2, [r0, #5]	@ zero_extendqisi2
 1244              	.LVL104:
 1245              		.loc 1 208 9 view .LVU346
 1246 01ce 0A2A     		cmp	r2, #10
 1247 01d0 02D0     		beq	.L68
 1248              	.L65:
 1249              	.LVL105:
 1250              	.LBB326:
 1251              	.LBI326:
 206:dfu.cpp       ****     if( (pSetup->wValue == 0) && (pSetup->wLength == 0) ) {
 1252              		.loc 1 206 6 is_stmt 1 view .LVU347
ARM GAS  /tmp/cczxpNKW.s 			page 32


 1253              	.LBB327:
 209:dfu.cpp       ****             set_status(OK);
 210:dfu.cpp       ****             set_state(DFUIDLE);
 211:dfu.cpp       ****             return true;
 212:dfu.cpp       ****         } else {
 213:dfu.cpp       ****             return error(ERRUNKNOWN);
 1254              		.loc 1 213 13 view .LVU348
 1255              		.loc 1 213 25 is_stmt 0 view .LVU349
 1256 01d2 0E21     		movs	r1, #14
 1257              	.LVL106:
 1258              		.loc 1 213 25 view .LVU350
 1259 01d4 FFF7FEBF 		b	_ZN3DFU5errorENS_6StatusE
 1260              	.LVL107:
 1261              	.L68:
 1262              		.loc 1 213 25 view .LVU351
 1263              	.LBE327:
 1264              	.LBE326:
 209:dfu.cpp       ****             set_status(OK);
 1265              		.loc 1 209 13 is_stmt 1 view .LVU352
 1266              	.LBB328:
 1267              	.LBI328:
  87:dfu.cpp       ****     status = new_status;
 1268              		.loc 1 87 6 view .LVU353
 1269              	.LBB329:
  88:dfu.cpp       **** }
 1270              		.loc 1 88 5 view .LVU354
  88:dfu.cpp       **** }
 1271              		.loc 1 88 5 is_stmt 0 view .LVU355
 1272              	.LBE329:
 1273              	.LBE328:
 210:dfu.cpp       ****             return true;
 1274              		.loc 1 210 13 is_stmt 1 view .LVU356
 1275              	.LBB332:
 1276              	.LBI332:
  78:dfu.cpp       ****     state = new_state;
 1277              		.loc 1 78 6 view .LVU357
 1278              	.LBB333:
  79:dfu.cpp       ****     virginity = false;
 1279              		.loc 1 79 5 view .LVU358
  80:dfu.cpp       **** }
 1280              		.loc 1 80 5 view .LVU359
 1281              	.LBE333:
 1282              	.LBE332:
 1283              	.LBB335:
 1284              	.LBB330:
  88:dfu.cpp       **** }
 1285              		.loc 1 88 12 is_stmt 0 view .LVU360
 1286 01d8 4FF40072 		mov	r2, #512
 1287              	.LBE330:
 1288              	.LBE335:
 1289              	.LBB336:
 1290              	.LBB334:
  80:dfu.cpp       **** }
 1291              		.loc 1 80 15 view .LVU361
 1292 01dc 8371     		strb	r3, [r0, #6]
 1293              	.LVL108:
  80:dfu.cpp       **** }
ARM GAS  /tmp/cczxpNKW.s 			page 33


 1294              		.loc 1 80 15 view .LVU362
 1295              	.LBE334:
 1296              	.LBE336:
 211:dfu.cpp       ****         } else {
 1297              		.loc 1 211 13 is_stmt 1 view .LVU363
 1298              	.LBB337:
 1299              	.LBB331:
  88:dfu.cpp       **** }
 1300              		.loc 1 88 12 is_stmt 0 view .LVU364
 1301 01de 8280     		strh	r2, [r0, #4]	@ movhi
 1302              	.LBE331:
 1303              	.LBE337:
 214:dfu.cpp       ****         }
 215:dfu.cpp       ****     } else {
 216:dfu.cpp       ****         return error(ERRUNKNOWN);
 217:dfu.cpp       ****     }
 218:dfu.cpp       **** }
 1304              		.loc 1 218 1 view .LVU365
 1305 01e0 0120     		movs	r0, #1
 1306              	.LVL109:
 1307              		.loc 1 218 1 view .LVU366
 1308 01e2 7047     		bx	lr
 1309              		.cfi_endproc
 1310              	.LFE23:
 1311              		.size	_ZN3DFU17request_clrstatusEP12TSetupPacketPmPh, .-_ZN3DFU17request_clrstatusEP12TSetupPacket
 1312              		.align	1
 1313              		.global	_ZN3DFU16request_getstateEP12TSetupPacketPmPh
 1314              		.syntax unified
 1315              		.thumb
 1316              		.thumb_func
 1317              		.fpu softvfp
 1318              		.type	_ZN3DFU16request_getstateEP12TSetupPacketPmPh, %function
 1319              	_ZN3DFU16request_getstateEP12TSetupPacketPmPh:
 1320              	.LVL110:
 1321              	.LFB24:
 219:dfu.cpp       **** 
 220:dfu.cpp       **** bool DFU::request_getstate(TSetupPacket *pSetup, uint32_t *piLen, uint8_t* pbData) {
 1322              		.loc 1 220 84 is_stmt 1 view -0
 1323              		.cfi_startproc
 1324              		@ args = 0, pretend = 0, frame = 0
 1325              		@ frame_needed = 0, uses_anonymous_args = 0
 1326              		@ link register save eliminated.
 221:dfu.cpp       ****     if( (pSetup->wValue == 0) && (pSetup->wLength == 1) ) {
 1327              		.loc 1 221 5 view .LVU368
 220:dfu.cpp       ****     if( (pSetup->wValue == 0) && (pSetup->wLength == 1) ) {
 1328              		.loc 1 220 84 is_stmt 0 view .LVU369
 1329 01e4 10B4     		push	{r4}
 1330              	.LCFI10:
 1331              		.cfi_def_cfa_offset 4
 1332              		.cfi_offset 4, -4
 1333              		.loc 1 221 5 view .LVU370
 1334 01e6 4C88     		ldrh	r4, [r1, #2]
 1335 01e8 14B9     		cbnz	r4, .L70
 1336              		.loc 1 221 31 discriminator 1 view .LVU371
 1337 01ea C988     		ldrh	r1, [r1, #6]
 1338              	.LVL111:
 1339              		.loc 1 221 31 discriminator 1 view .LVU372
ARM GAS  /tmp/cczxpNKW.s 			page 34


 1340 01ec 0129     		cmp	r1, #1
 1341 01ee 03D0     		beq	.L73
 1342              	.L70:
 222:dfu.cpp       ****         pbData[0] = get_state();
 223:dfu.cpp       ****         *piLen = 1;
 224:dfu.cpp       ****         return true;
 225:dfu.cpp       ****     } else {
 226:dfu.cpp       ****         return error(ERRUNKNOWN);
 1343              		.loc 1 226 9 is_stmt 1 view .LVU373
 1344              		.loc 1 226 21 is_stmt 0 view .LVU374
 1345 01f0 0E21     		movs	r1, #14
 227:dfu.cpp       ****     }
 228:dfu.cpp       **** }
 1346              		.loc 1 228 1 view .LVU375
 1347 01f2 10BC     		pop	{r4}
 1348              	.LCFI11:
 1349              		.cfi_remember_state
 1350              		.cfi_restore 4
 1351              		.cfi_def_cfa_offset 0
 226:dfu.cpp       ****     }
 1352              		.loc 1 226 21 view .LVU376
 1353 01f4 FFF7FEBF 		b	_ZN3DFU5errorENS_6StatusE
 1354              	.LVL112:
 1355              	.L73:
 1356              	.LCFI12:
 1357              		.cfi_restore_state
 222:dfu.cpp       ****         pbData[0] = get_state();
 1358              		.loc 1 222 9 is_stmt 1 view .LVU377
 1359              	.LBB338:
 1360              	.LBI338:
  83:dfu.cpp       ****     return state;
 1361              		.loc 1 83 9 view .LVU378
 1362              	.LBB339:
  84:dfu.cpp       **** }
 1363              		.loc 1 84 5 view .LVU379
  84:dfu.cpp       **** }
 1364              		.loc 1 84 12 is_stmt 0 view .LVU380
 1365 01f8 4079     		ldrb	r0, [r0, #5]	@ zero_extendqisi2
 1366              	.LVL113:
  84:dfu.cpp       **** }
 1367              		.loc 1 84 12 view .LVU381
 1368              	.LBE339:
 1369              	.LBE338:
 1370              		.loc 1 228 1 view .LVU382
 1371 01fa 10BC     		pop	{r4}
 1372              	.LCFI13:
 1373              		.cfi_restore 4
 1374              		.cfi_def_cfa_offset 0
 222:dfu.cpp       ****         *piLen = 1;
 1375              		.loc 1 222 19 view .LVU383
 1376 01fc 1870     		strb	r0, [r3]
 223:dfu.cpp       ****         return true;
 1377              		.loc 1 223 9 is_stmt 1 view .LVU384
 1378              		.loc 1 228 1 is_stmt 0 view .LVU385
 1379 01fe 0846     		mov	r0, r1
 223:dfu.cpp       ****         return true;
 1380              		.loc 1 223 16 view .LVU386
ARM GAS  /tmp/cczxpNKW.s 			page 35


 1381 0200 1160     		str	r1, [r2]
 224:dfu.cpp       ****     } else {
 1382              		.loc 1 224 9 is_stmt 1 view .LVU387
 1383              		.loc 1 228 1 is_stmt 0 view .LVU388
 1384 0202 7047     		bx	lr
 1385              		.cfi_endproc
 1386              	.LFE24:
 1387              		.size	_ZN3DFU16request_getstateEP12TSetupPacketPmPh, .-_ZN3DFU16request_getstateEP12TSetupPacketPm
 1388              		.align	1
 1389              		.global	_ZN3DFU13request_abortEP12TSetupPacketPmPh
 1390              		.syntax unified
 1391              		.thumb
 1392              		.thumb_func
 1393              		.fpu softvfp
 1394              		.type	_ZN3DFU13request_abortEP12TSetupPacketPmPh, %function
 1395              	_ZN3DFU13request_abortEP12TSetupPacketPmPh:
 1396              	.LVL114:
 1397              	.LFB25:
 229:dfu.cpp       **** 
 230:dfu.cpp       **** bool DFU::request_abort(TSetupPacket *pSetup, uint32_t *piLen, uint8_t* pbData) {
 1398              		.loc 1 230 81 is_stmt 1 view -0
 1399              		.cfi_startproc
 1400              		@ args = 0, pretend = 0, frame = 0
 1401              		@ frame_needed = 0, uses_anonymous_args = 0
 1402              		@ link register save eliminated.
 231:dfu.cpp       ****     if( (pSetup->wValue == 0) && (pSetup->wLength == 0) ) {
 1403              		.loc 1 231 5 view .LVU390
 1404 0204 4B88     		ldrh	r3, [r1, #2]
 1405              	.LVL115:
 1406              		.loc 1 231 5 is_stmt 0 view .LVU391
 1407 0206 23B9     		cbnz	r3, .L75
 1408              		.loc 1 231 31 discriminator 1 view .LVU392
 1409 0208 CB88     		ldrh	r3, [r1, #6]
 1410 020a 13B9     		cbnz	r3, .L75
 232:dfu.cpp       ****         if( get_state() != DFUERROR ) {
 1411              		.loc 1 232 9 is_stmt 1 view .LVU393
 1412              	.LVL116:
 1413              	.LBB352:
 1414              	.LBI352:
  83:dfu.cpp       ****     return state;
 1415              		.loc 1 83 9 view .LVU394
 1416              	.LBB353:
  84:dfu.cpp       **** }
 1417              		.loc 1 84 5 view .LVU395
  84:dfu.cpp       **** }
 1418              		.loc 1 84 5 is_stmt 0 view .LVU396
 1419              	.LBE353:
 1420              	.LBE352:
 1421              		.loc 1 232 9 view .LVU397
 1422 020c 4279     		ldrb	r2, [r0, #5]	@ zero_extendqisi2
 1423              	.LVL117:
 1424              		.loc 1 232 9 view .LVU398
 1425 020e 0A2A     		cmp	r2, #10
 1426 0210 02D1     		bne	.L81
 1427              	.L75:
 1428              	.LVL118:
 1429              	.LBB354:
ARM GAS  /tmp/cczxpNKW.s 			page 36


 1430              	.LBI354:
 206:dfu.cpp       ****     if( (pSetup->wValue == 0) && (pSetup->wLength == 0) ) {
 1431              		.loc 1 206 6 is_stmt 1 view .LVU399
 1432              	.LBB355:
 213:dfu.cpp       ****         }
 1433              		.loc 1 213 13 view .LVU400
 213:dfu.cpp       ****         }
 1434              		.loc 1 213 25 is_stmt 0 view .LVU401
 1435 0212 0E21     		movs	r1, #14
 1436              	.LVL119:
 213:dfu.cpp       ****         }
 1437              		.loc 1 213 25 view .LVU402
 1438 0214 FFF7FEBF 		b	_ZN3DFU5errorENS_6StatusE
 1439              	.LVL120:
 1440              	.L81:
 213:dfu.cpp       ****         }
 1441              		.loc 1 213 25 view .LVU403
 1442              	.LBE355:
 1443              	.LBE354:
 233:dfu.cpp       ****             set_state(DFUIDLE);
 1444              		.loc 1 233 13 is_stmt 1 view .LVU404
 1445              	.LBB356:
 1446              	.LBI356:
  78:dfu.cpp       ****     state = new_state;
 1447              		.loc 1 78 6 view .LVU405
 1448              	.LBB357:
  79:dfu.cpp       ****     virginity = false;
 1449              		.loc 1 79 5 view .LVU406
  79:dfu.cpp       ****     virginity = false;
 1450              		.loc 1 79 11 is_stmt 0 view .LVU407
 1451 0218 0222     		movs	r2, #2
  80:dfu.cpp       **** }
 1452              		.loc 1 80 15 view .LVU408
 1453 021a 8371     		strb	r3, [r0, #6]
  79:dfu.cpp       ****     virginity = false;
 1454              		.loc 1 79 11 view .LVU409
 1455 021c 4271     		strb	r2, [r0, #5]
  80:dfu.cpp       **** }
 1456              		.loc 1 80 5 is_stmt 1 view .LVU410
 1457              	.LVL121:
  80:dfu.cpp       **** }
 1458              		.loc 1 80 5 is_stmt 0 view .LVU411
 1459              	.LBE357:
 1460              	.LBE356:
 234:dfu.cpp       ****             return true;
 1461              		.loc 1 234 13 is_stmt 1 view .LVU412
 235:dfu.cpp       ****         } else {
 236:dfu.cpp       ****             return error(ERRUNKNOWN);
 237:dfu.cpp       ****         }
 238:dfu.cpp       ****     } else {
 239:dfu.cpp       ****         return error(ERRUNKNOWN);
 240:dfu.cpp       ****     }
 241:dfu.cpp       **** }
 1462              		.loc 1 241 1 is_stmt 0 view .LVU413
 1463 021e 0120     		movs	r0, #1
 1464              	.LVL122:
 1465              		.loc 1 241 1 view .LVU414
ARM GAS  /tmp/cczxpNKW.s 			page 37


 1466 0220 7047     		bx	lr
 1467              		.cfi_endproc
 1468              	.LFE25:
 1469              		.size	_ZN3DFU13request_abortEP12TSetupPacketPmPh, .-_ZN3DFU13request_abortEP12TSetupPacketPmPh
 1470              		.align	1
 1471              		.global	_ZN3DFU15request_handlerEP12TSetupPacketPmPPh
 1472              		.syntax unified
 1473              		.thumb
 1474              		.thumb_func
 1475              		.fpu softvfp
 1476              		.type	_ZN3DFU15request_handlerEP12TSetupPacketPmPPh, %function
 1477              	_ZN3DFU15request_handlerEP12TSetupPacketPmPPh:
 1478              	.LVL123:
 1479              	.LFB9:
  40:dfu.cpp       ****     uint8_t* pbData = *ppbData;
 1480              		.loc 1 40 85 is_stmt 1 view -0
 1481              		.cfi_startproc
 1482              		@ args = 0, pretend = 0, frame = 0
 1483              		@ frame_needed = 0, uses_anonymous_args = 0
 1484              		@ link register save eliminated.
  41:dfu.cpp       ****     
 1485              		.loc 1 41 5 view .LVU416
  40:dfu.cpp       ****     uint8_t* pbData = *ppbData;
 1486              		.loc 1 40 85 is_stmt 0 view .LVU417
 1487 0222 10B4     		push	{r4}
 1488              	.LCFI14:
 1489              		.cfi_def_cfa_offset 4
 1490              		.cfi_offset 4, -4
 1491 0224 4C78     		ldrb	r4, [r1, #1]	@ zero_extendqisi2
  41:dfu.cpp       ****     
 1492              		.loc 1 41 14 view .LVU418
 1493 0226 1B68     		ldr	r3, [r3]
 1494              	.LVL124:
  43:dfu.cpp       ****     case DETACH:
 1495              		.loc 1 43 5 is_stmt 1 view .LVU419
 1496 0228 062C     		cmp	r4, #6
 1497 022a 1AD8     		bhi	.L83
 1498 022c DFE804F0 		tbb	[pc, r4]
 1499              	.L85:
 1500 0230 04       		.byte	(.L91-.L85)/2
 1501 0231 07       		.byte	(.L90-.L85)/2
 1502 0232 0A       		.byte	(.L89-.L85)/2
 1503 0233 0D       		.byte	(.L88-.L85)/2
 1504 0234 10       		.byte	(.L87-.L85)/2
 1505 0235 13       		.byte	(.L86-.L85)/2
 1506 0236 16       		.byte	(.L84-.L85)/2
 1507 0237 00       		.p2align 1
 1508              	.L91:
  44:dfu.cpp       ****         return request_detach(pSetup, piLen, pbData);
 1509              		.loc 1 44 5 view .LVU420
  45:dfu.cpp       ****         
 1510              		.loc 1 45 9 view .LVU421
  68:dfu.cpp       **** 
 1511              		.loc 1 68 1 is_stmt 0 view .LVU422
 1512 0238 10BC     		pop	{r4}
 1513              	.LCFI15:
 1514              		.cfi_remember_state
ARM GAS  /tmp/cczxpNKW.s 			page 38


 1515              		.cfi_restore 4
 1516              		.cfi_def_cfa_offset 0
  45:dfu.cpp       ****         
 1517              		.loc 1 45 30 view .LVU423
 1518 023a FFF7FEBF 		b	_ZN3DFU14request_detachEP12TSetupPacketPmPh
 1519              	.LVL125:
 1520              	.L90:
 1521              	.LCFI16:
 1522              		.cfi_restore_state
  47:dfu.cpp       ****         return request_dnload(pSetup, piLen, pbData);
 1523              		.loc 1 47 5 is_stmt 1 view .LVU424
  48:dfu.cpp       ****         
 1524              		.loc 1 48 9 view .LVU425
  68:dfu.cpp       **** 
 1525              		.loc 1 68 1 is_stmt 0 view .LVU426
 1526 023e 10BC     		pop	{r4}
 1527              	.LCFI17:
 1528              		.cfi_remember_state
 1529              		.cfi_restore 4
 1530              		.cfi_def_cfa_offset 0
  48:dfu.cpp       ****         
 1531              		.loc 1 48 30 view .LVU427
 1532 0240 FFF7FEBF 		b	_ZN3DFU14request_dnloadEP12TSetupPacketPmPh
 1533              	.LVL126:
 1534              	.L89:
 1535              	.LCFI18:
 1536              		.cfi_restore_state
  50:dfu.cpp       ****         return request_upload(pSetup, piLen, pbData);
 1537              		.loc 1 50 5 is_stmt 1 view .LVU428
  51:dfu.cpp       ****         
 1538              		.loc 1 51 9 view .LVU429
  68:dfu.cpp       **** 
 1539              		.loc 1 68 1 is_stmt 0 view .LVU430
 1540 0244 10BC     		pop	{r4}
 1541              	.LCFI19:
 1542              		.cfi_remember_state
 1543              		.cfi_restore 4
 1544              		.cfi_def_cfa_offset 0
  51:dfu.cpp       ****         
 1545              		.loc 1 51 30 view .LVU431
 1546 0246 FFF7FEBF 		b	_ZN3DFU14request_uploadEP12TSetupPacketPmPh
 1547              	.LVL127:
 1548              	.L88:
 1549              	.LCFI20:
 1550              		.cfi_restore_state
  53:dfu.cpp       ****         return request_getstatus(pSetup, piLen, pbData);
 1551              		.loc 1 53 5 is_stmt 1 view .LVU432
  54:dfu.cpp       ****         
 1552              		.loc 1 54 9 view .LVU433
  68:dfu.cpp       **** 
 1553              		.loc 1 68 1 is_stmt 0 view .LVU434
 1554 024a 10BC     		pop	{r4}
 1555              	.LCFI21:
 1556              		.cfi_remember_state
 1557              		.cfi_restore 4
 1558              		.cfi_def_cfa_offset 0
  54:dfu.cpp       ****         
ARM GAS  /tmp/cczxpNKW.s 			page 39


 1559              		.loc 1 54 33 view .LVU435
 1560 024c FFF7FEBF 		b	_ZN3DFU17request_getstatusEP12TSetupPacketPmPh
 1561              	.LVL128:
 1562              	.L87:
 1563              	.LCFI22:
 1564              		.cfi_restore_state
  56:dfu.cpp       ****         return request_clrstatus(pSetup, piLen, pbData);
 1565              		.loc 1 56 5 is_stmt 1 view .LVU436
  57:dfu.cpp       ****         
 1566              		.loc 1 57 9 view .LVU437
  68:dfu.cpp       **** 
 1567              		.loc 1 68 1 is_stmt 0 view .LVU438
 1568 0250 10BC     		pop	{r4}
 1569              	.LCFI23:
 1570              		.cfi_remember_state
 1571              		.cfi_restore 4
 1572              		.cfi_def_cfa_offset 0
  57:dfu.cpp       ****         
 1573              		.loc 1 57 33 view .LVU439
 1574 0252 FFF7FEBF 		b	_ZN3DFU17request_clrstatusEP12TSetupPacketPmPh
 1575              	.LVL129:
 1576              	.L86:
 1577              	.LCFI24:
 1578              		.cfi_restore_state
  59:dfu.cpp       ****         return request_getstate(pSetup, piLen, pbData);
 1579              		.loc 1 59 5 is_stmt 1 view .LVU440
  60:dfu.cpp       ****         
 1580              		.loc 1 60 9 view .LVU441
  68:dfu.cpp       **** 
 1581              		.loc 1 68 1 is_stmt 0 view .LVU442
 1582 0256 10BC     		pop	{r4}
 1583              	.LCFI25:
 1584              		.cfi_remember_state
 1585              		.cfi_restore 4
 1586              		.cfi_def_cfa_offset 0
  60:dfu.cpp       ****         
 1587              		.loc 1 60 32 view .LVU443
 1588 0258 FFF7FEBF 		b	_ZN3DFU16request_getstateEP12TSetupPacketPmPh
 1589              	.LVL130:
 1590              	.L84:
 1591              	.LCFI26:
 1592              		.cfi_restore_state
  62:dfu.cpp       ****         return request_abort(pSetup, piLen, pbData);
 1593              		.loc 1 62 5 is_stmt 1 view .LVU444
  63:dfu.cpp       ****         
 1594              		.loc 1 63 9 view .LVU445
  68:dfu.cpp       **** 
 1595              		.loc 1 68 1 is_stmt 0 view .LVU446
 1596 025c 10BC     		pop	{r4}
 1597              	.LCFI27:
 1598              		.cfi_restore 4
 1599              		.cfi_def_cfa_offset 0
  63:dfu.cpp       ****         
 1600              		.loc 1 63 29 view .LVU447
 1601 025e FFF7FEBF 		b	_ZN3DFU13request_abortEP12TSetupPacketPmPh
 1602              	.LVL131:
 1603              	.L83:
ARM GAS  /tmp/cczxpNKW.s 			page 40


  68:dfu.cpp       **** 
 1604              		.loc 1 68 1 view .LVU448
 1605 0262 0020     		movs	r0, #0
 1606              	.LVL132:
  68:dfu.cpp       **** 
 1607              		.loc 1 68 1 view .LVU449
 1608 0264 10BC     		pop	{r4}
 1609 0266 7047     		bx	lr
 1610              		.cfi_endproc
 1611              	.LFE9:
 1612              		.size	_ZN3DFU15request_handlerEP12TSetupPacketPmPPh, .-_ZN3DFU15request_handlerEP12TSetupPacketPmP
 1613              	.Letext0:
 1614              		.file 3 "/usr/lib/gcc/arm-none-eabi/9.2.1/include/stdint.h"
 1615              		.file 4 "../common/lpcusb/target/type.h"
 1616              		.file 5 "../common/lpcusb/target/usbstruct.h"
 1617              		.file 6 "iap.h"
 1618              		.file 7 "dfu.h"
 1619              		.file 8 "/usr/lib/gcc/arm-none-eabi/9.2.1/include/stddef.h"
 1620              		.file 9 "/usr/include/newlib/sys/_types.h"
 1621              		.file 10 "/usr/include/newlib/sys/reent.h"
 1622              		.file 11 "/usr/include/newlib/sys/lock.h"