ARM GAS  /tmp/ccCUAYTi.s 			page 1


   1              		.cpu cortex-m3
   2              		.eabi_attribute 20, 1
   3              		.eabi_attribute 21, 1
   4              		.eabi_attribute 23, 3
   5              		.eabi_attribute 24, 1
   6              		.eabi_attribute 25, 1
   7              		.eabi_attribute 26, 1
   8              		.eabi_attribute 30, 4
   9              		.eabi_attribute 34, 1
  10              		.eabi_attribute 18, 4
  11              		.file	"iap.cpp"
  12              		.text
  13              	.Ltext0:
  14              		.cfi_sections	.debug_frame
  15              		.align	1
  16              		.global	_ZN3IAP35prepare_sectors_for_write_operationEmm
  17              		.arch armv7-m
  18              		.syntax unified
  19              		.thumb
  20              		.thumb_func
  21              		.fpu softvfp
  22              		.type	_ZN3IAP35prepare_sectors_for_write_operationEmm, %function
  23              	_ZN3IAP35prepare_sectors_for_write_operationEmm:
  24              	.LVL0:
  25              	.LFB0:
  26              		.file 1 "iap.cpp"
   1:iap.cpp       **** /*
   2:iap.cpp       ****  * Copyright 2010, 2011 Michael Ossmann
   3:iap.cpp       ****  *
   4:iap.cpp       ****  * This file is part of Project Ubertooth.
   5:iap.cpp       ****  *
   6:iap.cpp       ****  * This program is free software; you can redistribute it and/or modify
   7:iap.cpp       ****  * it under the terms of the GNU General Public License as published by
   8:iap.cpp       ****  * the Free Software Foundation; either version 2, or (at your option)
   9:iap.cpp       ****  * any later version.
  10:iap.cpp       ****  *
  11:iap.cpp       ****  * This program is distributed in the hope that it will be useful,
  12:iap.cpp       ****  * but WITHOUT ANY WARRANTY; without even the implied warranty of
  13:iap.cpp       ****  * MERCHANTABILITY or FITNESS FOR A PARTICULAR PURPOSE.  See the
  14:iap.cpp       ****  * GNU General Public License for more details.
  15:iap.cpp       ****  *
  16:iap.cpp       ****  * You should have received a copy of the GNU General Public License
  17:iap.cpp       ****  * along with this program; see the file COPYING.  If not, write to
  18:iap.cpp       ****  * the Free Software Foundation, Inc., 51 Franklin Street,
  19:iap.cpp       ****  * Boston, MA 02110-1301, USA.
  20:iap.cpp       ****  */
  21:iap.cpp       **** 
  22:iap.cpp       **** #include "iap.h"
  23:iap.cpp       **** 
  24:iap.cpp       **** IAP::ReturnCode IAP::prepare_sectors_for_write_operation(const uint32_t start_sector_number,
  25:iap.cpp       ****                                                const uint32_t end_sector_number) {
  27              		.loc 1 25 82 view -0
  28              		.cfi_startproc
  29              		@ args = 0, pretend = 0, frame = 16
  30              		@ frame_needed = 0, uses_anonymous_args = 0
  26:iap.cpp       ****     uint32_t input[] = {
  31              		.loc 1 26 5 view .LVU1
ARM GAS  /tmp/ccCUAYTi.s 			page 2


  25:iap.cpp       ****     uint32_t input[] = {
  32              		.loc 1 25 82 is_stmt 0 view .LVU2
  33 0000 1FB5     		push	{r0, r1, r2, r3, r4, lr}
  34              	.LCFI0:
  35              		.cfi_def_cfa_offset 24
  36              		.cfi_offset 14, -4
  37              		.loc 1 26 14 view .LVU3
  38 0002 3223     		movs	r3, #50
  27:iap.cpp       ****         50,
  28:iap.cpp       ****         start_sector_number,
  29:iap.cpp       ****         end_sector_number
  30:iap.cpp       ****     };
  39              		.loc 1 30 5 view .LVU4
  40 0004 CDE90131 		strd	r3, r1, [sp, #4]
  31:iap.cpp       ****     uint32_t output[] = {
  41              		.loc 1 31 14 view .LVU5
  42 0008 0123     		movs	r3, #1
  32:iap.cpp       ****         INVALID_COMMAND
  33:iap.cpp       ****     };
  34:iap.cpp       ****     
  35:iap.cpp       ****     entry_point(input, output);
  43              		.loc 1 35 16 view .LVU6
  44 000a 01A8     		add	r0, sp, #4
  45              	.LVL1:
  31:iap.cpp       ****     uint32_t output[] = {
  46              		.loc 1 31 14 view .LVU7
  47 000c 0093     		str	r3, [sp]
  48              		.loc 1 35 16 view .LVU8
  49 000e 6946     		mov	r1, sp
  50              	.LVL2:
  51              		.loc 1 35 16 view .LVU9
  52 0010 034B     		ldr	r3, .L2
  30:iap.cpp       ****     uint32_t output[] = {
  53              		.loc 1 30 5 view .LVU10
  54 0012 0392     		str	r2, [sp, #12]
  31:iap.cpp       ****     uint32_t output[] = {
  55              		.loc 1 31 5 is_stmt 1 view .LVU11
  56              		.loc 1 35 5 view .LVU12
  57              		.loc 1 35 16 is_stmt 0 view .LVU13
  58 0014 9847     		blx	r3
  59              	.LVL3:
  36:iap.cpp       ****     
  37:iap.cpp       ****     return static_cast<ReturnCode>(output[0]);
  60              		.loc 1 37 5 is_stmt 1 view .LVU14
  38:iap.cpp       **** }
  61              		.loc 1 38 1 is_stmt 0 view .LVU15
  62 0016 9DF80000 		ldrb	r0, [sp]	@ zero_extendqisi2
  63 001a 05B0     		add	sp, sp, #20
  64              	.LCFI1:
  65              		.cfi_def_cfa_offset 4
  66              		@ sp needed
  67 001c 5DF804FB 		ldr	pc, [sp], #4
  68              	.L3:
  69              		.align	2
  70              	.L2:
  71 0020 F11FFF1F 		.word	536813553
  72              		.cfi_endproc
ARM GAS  /tmp/ccCUAYTi.s 			page 3


  73              	.LFE0:
  74              		.size	_ZN3IAP35prepare_sectors_for_write_operationEmm, .-_ZN3IAP35prepare_sectors_for_write_operat
  75              		.align	1
  76              		.global	_ZN3IAP17copy_ram_to_flashEmmmm
  77              		.syntax unified
  78              		.thumb
  79              		.thumb_func
  80              		.fpu softvfp
  81              		.type	_ZN3IAP17copy_ram_to_flashEmmmm, %function
  82              	_ZN3IAP17copy_ram_to_flashEmmmm:
  83              	.LVL4:
  84              	.LFB1:
  39:iap.cpp       **** 
  40:iap.cpp       **** IAP::ReturnCode IAP::copy_ram_to_flash(const uint32_t destination_flash_address,
  41:iap.cpp       ****                              const uint32_t source_ram_address,
  42:iap.cpp       ****                              const uint32_t number_of_bytes_to_write,
  43:iap.cpp       ****                              const uint32_t cpu_clock_frequency_khz) {
  85              		.loc 1 43 70 is_stmt 1 view -0
  86              		.cfi_startproc
  87              		@ args = 4, pretend = 0, frame = 24
  88              		@ frame_needed = 0, uses_anonymous_args = 0
  44:iap.cpp       ****     uint32_t input[] = {
  89              		.loc 1 44 5 view .LVU17
  43:iap.cpp       ****     uint32_t input[] = {
  90              		.loc 1 43 70 is_stmt 0 view .LVU18
  91 0024 7FB5     		push	{r0, r1, r2, r3, r4, r5, r6, lr}
  92              	.LCFI2:
  93              		.cfi_def_cfa_offset 32
  94              		.cfi_offset 14, -4
  45:iap.cpp       ****         51,
  46:iap.cpp       ****         destination_flash_address,
  47:iap.cpp       ****         source_ram_address,
  48:iap.cpp       ****         number_of_bytes_to_write,
  49:iap.cpp       ****         cpu_clock_frequency_khz
  50:iap.cpp       ****     };
  95              		.loc 1 50 5 view .LVU19
  96 0026 CDE90323 		strd	r2, r3, [sp, #12]
  97 002a 089B     		ldr	r3, [sp, #32]
  98              	.LVL5:
  44:iap.cpp       ****         51,
  99              		.loc 1 44 14 view .LVU20
 100 002c 3320     		movs	r0, #51
 101              	.LVL6:
 102              		.loc 1 50 5 view .LVU21
 103 002e 0593     		str	r3, [sp, #20]
  51:iap.cpp       ****     uint32_t output[] = {
 104              		.loc 1 51 5 is_stmt 1 view .LVU22
 105              		.loc 1 51 14 is_stmt 0 view .LVU23
 106 0030 0123     		movs	r3, #1
  50:iap.cpp       ****     uint32_t output[] = {
 107              		.loc 1 50 5 view .LVU24
 108 0032 CDE90101 		strd	r0, r1, [sp, #4]
 109              		.loc 1 51 14 view .LVU25
 110 0036 0093     		str	r3, [sp]
  52:iap.cpp       ****         INVALID_COMMAND
  53:iap.cpp       ****     };
  54:iap.cpp       ****     
ARM GAS  /tmp/ccCUAYTi.s 			page 4


  55:iap.cpp       ****     entry_point(input, output);
 111              		.loc 1 55 5 is_stmt 1 view .LVU26
 112              		.loc 1 55 16 is_stmt 0 view .LVU27
 113 0038 01A8     		add	r0, sp, #4
 114 003a 6946     		mov	r1, sp
 115              	.LVL7:
 116              		.loc 1 55 16 view .LVU28
 117 003c 034B     		ldr	r3, .L5
 118 003e 9847     		blx	r3
 119              	.LVL8:
  56:iap.cpp       ****     
  57:iap.cpp       ****     return static_cast<ReturnCode>(output[0]);
 120              		.loc 1 57 5 is_stmt 1 view .LVU29
  58:iap.cpp       **** }
 121              		.loc 1 58 1 is_stmt 0 view .LVU30
 122 0040 9DF80000 		ldrb	r0, [sp]	@ zero_extendqisi2
 123 0044 07B0     		add	sp, sp, #28
 124              	.LCFI3:
 125              		.cfi_def_cfa_offset 4
 126              		@ sp needed
 127 0046 5DF804FB 		ldr	pc, [sp], #4
 128              	.LVL9:
 129              	.L6:
 130              		.loc 1 58 1 view .LVU31
 131 004a 00BF     		.align	2
 132              	.L5:
 133 004c F11FFF1F 		.word	536813553
 134              		.cfi_endproc
 135              	.LFE1:
 136              		.size	_ZN3IAP17copy_ram_to_flashEmmmm, .-_ZN3IAP17copy_ram_to_flashEmmmm
 137              		.align	1
 138              		.global	_ZN3IAP13erase_sectorsEmmm
 139              		.syntax unified
 140              		.thumb
 141              		.thumb_func
 142              		.fpu softvfp
 143              		.type	_ZN3IAP13erase_sectorsEmmm, %function
 144              	_ZN3IAP13erase_sectorsEmmm:
 145              	.LVL10:
 146              	.LFB2:
  59:iap.cpp       **** 
  60:iap.cpp       **** IAP::ReturnCode IAP::erase_sectors(const uint32_t start_sector_number,
  61:iap.cpp       ****                          const uint32_t end_sector_number,
  62:iap.cpp       ****                          const uint32_t cpu_clock_frequency_khz) {
 147              		.loc 1 62 66 is_stmt 1 view -0
 148              		.cfi_startproc
 149              		@ args = 0, pretend = 0, frame = 24
 150              		@ frame_needed = 0, uses_anonymous_args = 0
  63:iap.cpp       ****     uint32_t input[] = {
 151              		.loc 1 63 5 view .LVU33
  62:iap.cpp       ****     uint32_t input[] = {
 152              		.loc 1 62 66 is_stmt 0 view .LVU34
 153 0050 7FB5     		push	{r0, r1, r2, r3, r4, r5, r6, lr}
 154              	.LCFI4:
 155              		.cfi_def_cfa_offset 32
 156              		.cfi_offset 14, -4
 157              		.loc 1 63 14 view .LVU35
ARM GAS  /tmp/ccCUAYTi.s 			page 5


 158 0052 3420     		movs	r0, #52
 159              	.LVL11:
  64:iap.cpp       ****         52,
  65:iap.cpp       ****         start_sector_number,
  66:iap.cpp       ****         end_sector_number,
  67:iap.cpp       ****         cpu_clock_frequency_khz
  68:iap.cpp       ****     };
 160              		.loc 1 68 5 view .LVU36
 161 0054 CDE90423 		strd	r2, r3, [sp, #16]
  69:iap.cpp       ****     uint32_t output[] = {
 162              		.loc 1 69 5 is_stmt 1 view .LVU37
 163              		.loc 1 69 14 is_stmt 0 view .LVU38
 164 0058 0123     		movs	r3, #1
 165              	.LVL12:
  68:iap.cpp       ****     uint32_t output[] = {
 166              		.loc 1 68 5 view .LVU39
 167 005a CDE90201 		strd	r0, r1, [sp, #8]
 168              		.loc 1 69 14 view .LVU40
 169 005e 0193     		str	r3, [sp, #4]
  70:iap.cpp       ****         INVALID_COMMAND
  71:iap.cpp       ****     };
  72:iap.cpp       ****     
  73:iap.cpp       ****     entry_point(input, output);
 170              		.loc 1 73 5 is_stmt 1 view .LVU41
 171              		.loc 1 73 16 is_stmt 0 view .LVU42
 172 0060 02A8     		add	r0, sp, #8
 173 0062 044B     		ldr	r3, .L8
 174 0064 01A9     		add	r1, sp, #4
 175              	.LVL13:
 176              		.loc 1 73 16 view .LVU43
 177 0066 9847     		blx	r3
 178              	.LVL14:
  74:iap.cpp       ****     
  75:iap.cpp       ****     return static_cast<ReturnCode>(output[0]);
 179              		.loc 1 75 5 is_stmt 1 view .LVU44
  76:iap.cpp       **** }
 180              		.loc 1 76 1 is_stmt 0 view .LVU45
 181 0068 9DF80400 		ldrb	r0, [sp, #4]	@ zero_extendqisi2
 182 006c 07B0     		add	sp, sp, #28
 183              	.LCFI5:
 184              		.cfi_def_cfa_offset 4
 185              		@ sp needed
 186 006e 5DF804FB 		ldr	pc, [sp], #4
 187              	.L9:
 188 0072 00BF     		.align	2
 189              	.L8:
 190 0074 F11FFF1F 		.word	536813553
 191              		.cfi_endproc
 192              	.LFE2:
 193              		.size	_ZN3IAP13erase_sectorsEmmm, .-_ZN3IAP13erase_sectorsEmmm
 194              		.align	1
 195              		.global	_ZN3IAP19blank_check_sectorsEmm
 196              		.syntax unified
 197              		.thumb
 198              		.thumb_func
 199              		.fpu softvfp
 200              		.type	_ZN3IAP19blank_check_sectorsEmm, %function
ARM GAS  /tmp/ccCUAYTi.s 			page 6


 201              	_ZN3IAP19blank_check_sectorsEmm:
 202              	.LVL15:
 203              	.LFB3:
  77:iap.cpp       **** 
  78:iap.cpp       **** IAP::ReturnCode IAP::blank_check_sectors(const uint32_t start_sector_number,
  79:iap.cpp       ****                                const uint32_t end_sector_number) {
 204              		.loc 1 79 66 is_stmt 1 view -0
 205              		.cfi_startproc
 206              		@ args = 0, pretend = 0, frame = 24
 207              		@ frame_needed = 0, uses_anonymous_args = 0
  80:iap.cpp       ****     uint32_t input[] = {
 208              		.loc 1 80 5 view .LVU47
  79:iap.cpp       ****     uint32_t input[] = {
 209              		.loc 1 79 66 is_stmt 0 view .LVU48
 210 0078 7FB5     		push	{r0, r1, r2, r3, r4, r5, r6, lr}
 211              	.LCFI6:
 212              		.cfi_def_cfa_offset 32
 213              		.cfi_offset 14, -4
 214              		.loc 1 80 14 view .LVU49
 215 007a 3523     		movs	r3, #53
  81:iap.cpp       ****         53,
  82:iap.cpp       ****         start_sector_number,
  83:iap.cpp       ****         end_sector_number
  84:iap.cpp       ****     };
 216              		.loc 1 84 5 view .LVU50
 217 007c 0292     		str	r2, [sp, #8]
  85:iap.cpp       ****     uint32_t output[] = {
 218              		.loc 1 85 5 is_stmt 1 view .LVU51
  84:iap.cpp       ****     uint32_t output[] = {
 219              		.loc 1 84 5 is_stmt 0 view .LVU52
 220 007e CDE90031 		strd	r3, r1, [sp]
 221              		.loc 1 85 14 view .LVU53
 222 0082 0122     		movs	r2, #1
 223              	.LVL16:
 224              		.loc 1 85 14 view .LVU54
 225 0084 0023     		movs	r3, #0
  86:iap.cpp       ****         INVALID_COMMAND,
  87:iap.cpp       ****         0,
  88:iap.cpp       ****         0
  89:iap.cpp       ****     };
  90:iap.cpp       ****     
  91:iap.cpp       ****     entry_point(input, output);
 226              		.loc 1 91 16 view .LVU55
 227 0086 6846     		mov	r0, sp
 228              	.LVL17:
  85:iap.cpp       ****         INVALID_COMMAND,
 229              		.loc 1 85 14 view .LVU56
 230 0088 CDE90323 		strd	r2, r3, [sp, #12]
 231 008c 0593     		str	r3, [sp, #20]
 232              		.loc 1 91 5 is_stmt 1 view .LVU57
 233              		.loc 1 91 16 is_stmt 0 view .LVU58
 234 008e 03A9     		add	r1, sp, #12
 235              	.LVL18:
 236              		.loc 1 91 16 view .LVU59
 237 0090 034B     		ldr	r3, .L11
 238 0092 9847     		blx	r3
 239              	.LVL19:
ARM GAS  /tmp/ccCUAYTi.s 			page 7


  92:iap.cpp       ****     
  93:iap.cpp       ****     return static_cast<ReturnCode>(output[0]);
 240              		.loc 1 93 5 is_stmt 1 view .LVU60
  94:iap.cpp       **** }
 241              		.loc 1 94 1 is_stmt 0 view .LVU61
 242 0094 9DF80C00 		ldrb	r0, [sp, #12]	@ zero_extendqisi2
 243 0098 07B0     		add	sp, sp, #28
 244              	.LCFI7:
 245              		.cfi_def_cfa_offset 4
 246              		@ sp needed
 247 009a 5DF804FB 		ldr	pc, [sp], #4
 248              	.L12:
 249 009e 00BF     		.align	2
 250              	.L11:
 251 00a0 F11FFF1F 		.word	536813553
 252              		.cfi_endproc
 253              	.LFE3:
 254              		.size	_ZN3IAP19blank_check_sectorsEmm, .-_ZN3IAP19blank_check_sectorsEmm
 255              		.align	1
 256              		.global	_ZN3IAP7compareEmmm
 257              		.syntax unified
 258              		.thumb
 259              		.thumb_func
 260              		.fpu softvfp
 261              		.type	_ZN3IAP7compareEmmm, %function
 262              	_ZN3IAP7compareEmmm:
 263              	.LVL20:
 264              	.LFB4:
  95:iap.cpp       **** 
  96:iap.cpp       **** IAP::ReturnCode IAP::compare(const uint32_t destination_address,
  97:iap.cpp       ****                    const uint32_t source_address,
  98:iap.cpp       ****                    const uint32_t number_of_bytes_to_compare) {
 265              		.loc 1 98 63 is_stmt 1 view -0
 266              		.cfi_startproc
 267              		@ args = 0, pretend = 0, frame = 24
 268              		@ frame_needed = 0, uses_anonymous_args = 0
  99:iap.cpp       ****     uint32_t input[] = {
 269              		.loc 1 99 5 view .LVU63
  98:iap.cpp       ****     uint32_t input[] = {
 270              		.loc 1 98 63 is_stmt 0 view .LVU64
 271 00a4 7FB5     		push	{r0, r1, r2, r3, r4, r5, r6, lr}
 272              	.LCFI8:
 273              		.cfi_def_cfa_offset 32
 274              		.cfi_offset 14, -4
 275              		.loc 1 99 14 view .LVU65
 276 00a6 3820     		movs	r0, #56
 277              	.LVL21:
 100:iap.cpp       ****         56,
 101:iap.cpp       ****         destination_address,
 102:iap.cpp       ****         source_address,
 103:iap.cpp       ****         number_of_bytes_to_compare
 104:iap.cpp       ****     };
 278              		.loc 1 104 5 view .LVU66
 279 00a8 CDE90423 		strd	r2, r3, [sp, #16]
 105:iap.cpp       ****     uint32_t output[] = {
 280              		.loc 1 105 5 is_stmt 1 view .LVU67
 281              		.loc 1 105 14 is_stmt 0 view .LVU68
ARM GAS  /tmp/ccCUAYTi.s 			page 8


 282 00ac 0122     		movs	r2, #1
 283              	.LVL22:
 284              		.loc 1 105 14 view .LVU69
 285 00ae 0023     		movs	r3, #0
 286              	.LVL23:
 104:iap.cpp       ****     uint32_t output[] = {
 287              		.loc 1 104 5 view .LVU70
 288 00b0 CDE90201 		strd	r0, r1, [sp, #8]
 289              		.loc 1 105 14 view .LVU71
 290 00b4 CDE90023 		strd	r2, r3, [sp]
 106:iap.cpp       ****         INVALID_COMMAND,
 107:iap.cpp       ****         0
 108:iap.cpp       ****     };
 109:iap.cpp       ****     
 110:iap.cpp       ****     entry_point(input, output);
 291              		.loc 1 110 5 is_stmt 1 view .LVU72
 292              		.loc 1 110 16 is_stmt 0 view .LVU73
 293 00b8 02A8     		add	r0, sp, #8
 294 00ba 6946     		mov	r1, sp
 295              	.LVL24:
 296              		.loc 1 110 16 view .LVU74
 297 00bc 034B     		ldr	r3, .L14
 298 00be 9847     		blx	r3
 299              	.LVL25:
 111:iap.cpp       ****     
 112:iap.cpp       ****     return static_cast<ReturnCode>(output[0]);
 300              		.loc 1 112 5 is_stmt 1 view .LVU75
 113:iap.cpp       **** }
 301              		.loc 1 113 1 is_stmt 0 view .LVU76
 302 00c0 9DF80000 		ldrb	r0, [sp]	@ zero_extendqisi2
 303 00c4 07B0     		add	sp, sp, #28
 304              	.LCFI9:
 305              		.cfi_def_cfa_offset 4
 306              		@ sp needed
 307 00c6 5DF804FB 		ldr	pc, [sp], #4
 308              	.L15:
 309 00ca 00BF     		.align	2
 310              	.L14:
 311 00cc F11FFF1F 		.word	536813553
 312              		.cfi_endproc
 313              	.LFE4:
 314              		.size	_ZN3IAP7compareEmmm, .-_ZN3IAP7compareEmmm
 315              		.global	_ZN3IAP11entry_pointE
 316              		.section	.rodata
 317              		.align	2
 318              		.type	_ZN3IAP11entry_pointE, %object
 319              		.size	_ZN3IAP11entry_pointE, 4
 320              	_ZN3IAP11entry_pointE:
 321 0000 F11FFF1F 		.word	536813553
 322              		.text
 323              	.Letext0:
 324              		.file 2 "iap.h"
 325              		.file 3 "/usr/lib/gcc/arm-none-eabi/9.2.1/include/stdint.h"