ARM GAS  /tmp/ccwF1FQu.s 			page 1


   1              		.cpu cortex-m3
   2              		.eabi_attribute 20, 1
   3              		.eabi_attribute 21, 1
   4              		.eabi_attribute 23, 3
   5              		.eabi_attribute 24, 1
   6              		.eabi_attribute 25, 1
   7              		.eabi_attribute 26, 1
   8              		.eabi_attribute 30, 4
   9              		.eabi_attribute 34, 1
  10              		.eabi_attribute 18, 4
  11              		.file	"bluetooth_rxtx.c"
  12              		.text
  13              	.Ltext0:
  14              		.cfi_sections	.debug_frame
  15              		.section	.text.reverse8,"ax",%progbits
  16              		.align	1
  17              		.arch armv7-m
  18              		.syntax unified
  19              		.thumb
  20              		.thumb_func
  21              		.fpu softvfp
  23              	reverse8:
  24              	.LVL0:
  25              	.LFB16:
  26              		.file 1 "bluetooth_rxtx.c"
   1:bluetooth_rxtx.c **** /*
   2:bluetooth_rxtx.c ****  * Copyright 2010-2013 Michael Ossmann
   3:bluetooth_rxtx.c ****  * Copyright 2011-2013 Dominic Spill
   4:bluetooth_rxtx.c ****  *
   5:bluetooth_rxtx.c ****  * This file is part of Project Ubertooth.
   6:bluetooth_rxtx.c ****  *
   7:bluetooth_rxtx.c ****  * This program is free software; you can redistribute it and/or modify
   8:bluetooth_rxtx.c ****  * it under the terms of the GNU General Public License as published by
   9:bluetooth_rxtx.c ****  * the Free Software Foundation; either version 2, or (at your option)
  10:bluetooth_rxtx.c ****  * any later version.
  11:bluetooth_rxtx.c ****  *
  12:bluetooth_rxtx.c ****  * This program is distributed in the hope that it will be useful,
  13:bluetooth_rxtx.c ****  * but WITHOUT ANY WARRANTY; without even the implied warranty of
  14:bluetooth_rxtx.c ****  * MERCHANTABILITY or FITNESS FOR A PARTICULAR PURPOSE.  See the
  15:bluetooth_rxtx.c ****  * GNU General Public License for more details.
  16:bluetooth_rxtx.c ****  *
  17:bluetooth_rxtx.c ****  * You should have received a copy of the GNU General Public License
  18:bluetooth_rxtx.c ****  * along with this program; see the file COPYING.  If not, write to
  19:bluetooth_rxtx.c ****  * the Free Software Foundation, Inc., 51 Franklin Street,
  20:bluetooth_rxtx.c ****  * Boston, MA 02110-1301, USA.
  21:bluetooth_rxtx.c ****  */
  22:bluetooth_rxtx.c **** 
  23:bluetooth_rxtx.c **** #include <string.h>
  24:bluetooth_rxtx.c **** 
  25:bluetooth_rxtx.c **** #include "ubertooth.h"
  26:bluetooth_rxtx.c **** #include "ubertooth_usb.h"
  27:bluetooth_rxtx.c **** #include "ubertooth_interface.h"
  28:bluetooth_rxtx.c **** #include "ubertooth_rssi.h"
  29:bluetooth_rxtx.c **** #include "ubertooth_cs.h"
  30:bluetooth_rxtx.c **** #include "ubertooth_dma.h"
  31:bluetooth_rxtx.c **** #include "ubertooth_clock.h"
  32:bluetooth_rxtx.c **** #include "bluetooth.h"
ARM GAS  /tmp/ccwF1FQu.s 			page 2


  33:bluetooth_rxtx.c **** #include "bluetooth_le.h"
  34:bluetooth_rxtx.c **** #include "cc2400_rangetest.h"
  35:bluetooth_rxtx.c **** #include "ego.h"
  36:bluetooth_rxtx.c **** #include "debug_uart.h"
  37:bluetooth_rxtx.c **** #include "xmas.h"
  38:bluetooth_rxtx.c **** 
  39:bluetooth_rxtx.c **** #define MIN(x,y)	((x)<(y)?(x):(y))
  40:bluetooth_rxtx.c **** #define MAX(x,y)	((x)>(y)?(x):(y))
  41:bluetooth_rxtx.c **** 
  42:bluetooth_rxtx.c **** /* build info */
  43:bluetooth_rxtx.c **** const char compile_info[] =
  44:bluetooth_rxtx.c **** 	"ubertooth " GIT_REVISION " (" COMPILE_BY "@" COMPILE_HOST ") " TIMESTAMP;
  45:bluetooth_rxtx.c **** 
  46:bluetooth_rxtx.c **** /* hopping stuff */
  47:bluetooth_rxtx.c **** volatile uint8_t  hop_mode = HOP_NONE;
  48:bluetooth_rxtx.c **** volatile uint8_t  do_hop = 0;                  // set by timer interrupt
  49:bluetooth_rxtx.c **** volatile uint16_t channel = 2441;
  50:bluetooth_rxtx.c **** volatile uint16_t hop_direct_channel = 0;      // for hopping directly to a channel
  51:bluetooth_rxtx.c **** volatile uint16_t hop_timeout = 158;
  52:bluetooth_rxtx.c **** volatile uint16_t requested_channel = 0;
  53:bluetooth_rxtx.c **** volatile uint16_t le_adv_channel = 2402;
  54:bluetooth_rxtx.c **** volatile int      cancel_follow = 0;
  55:bluetooth_rxtx.c **** 
  56:bluetooth_rxtx.c **** /* bulk USB stuff */
  57:bluetooth_rxtx.c **** volatile uint8_t  idle_buf_clkn_high = 0;
  58:bluetooth_rxtx.c **** volatile uint32_t idle_buf_clk100ns = 0;
  59:bluetooth_rxtx.c **** volatile uint16_t idle_buf_channel = 0;
  60:bluetooth_rxtx.c **** volatile uint8_t  dma_discard = 0;
  61:bluetooth_rxtx.c **** volatile uint8_t  status = 0;
  62:bluetooth_rxtx.c **** 
  63:bluetooth_rxtx.c **** /* operation mode */
  64:bluetooth_rxtx.c **** volatile uint8_t mode = MODE_IDLE;
  65:bluetooth_rxtx.c **** volatile uint8_t requested_mode = MODE_IDLE;
  66:bluetooth_rxtx.c **** volatile uint8_t jam_mode = JAM_NONE;
  67:bluetooth_rxtx.c **** volatile uint8_t ego_mode = EGO_FOLLOW;
  68:bluetooth_rxtx.c **** 
  69:bluetooth_rxtx.c **** volatile uint8_t modulation = MOD_BT_BASIC_RATE;
  70:bluetooth_rxtx.c **** 
  71:bluetooth_rxtx.c **** /* specan stuff */
  72:bluetooth_rxtx.c **** volatile uint16_t low_freq = 2400;
  73:bluetooth_rxtx.c **** volatile uint16_t high_freq = 2483;
  74:bluetooth_rxtx.c **** volatile int8_t rssi_threshold = -30;  // -54dBm - 30 = -84dBm
  75:bluetooth_rxtx.c **** 
  76:bluetooth_rxtx.c **** /* Generic TX stuff */
  77:bluetooth_rxtx.c **** generic_tx_packet tx_pkt;
  78:bluetooth_rxtx.c **** 
  79:bluetooth_rxtx.c **** /* le slave stuff */
  80:bluetooth_rxtx.c **** uint8_t slave_mac_address[6] = { 0, };
  81:bluetooth_rxtx.c **** uint8_t le_adv_data[LE_ADV_MAX_LEN] = { 0x02, 0x01, 0x05 };
  82:bluetooth_rxtx.c **** unsigned le_adv_len = 3;
  83:bluetooth_rxtx.c **** 
  84:bluetooth_rxtx.c **** le_state_t le = {
  85:bluetooth_rxtx.c **** 	.access_address = 0x8e89bed6,           // advertising channel access address
  86:bluetooth_rxtx.c **** 	.synch = 0x6b7d,                        // bit-reversed adv channel AA
  87:bluetooth_rxtx.c **** 	.syncl = 0x9171,
  88:bluetooth_rxtx.c **** 	.crc_init  = 0x555555,                  // advertising channel CRCInit
  89:bluetooth_rxtx.c **** 	.crc_init_reversed = 0xAAAAAA,
ARM GAS  /tmp/ccwF1FQu.s 			page 3


  90:bluetooth_rxtx.c **** 	.crc_verify = 0,
  91:bluetooth_rxtx.c **** 
  92:bluetooth_rxtx.c **** 	.link_state = LINK_INACTIVE,
  93:bluetooth_rxtx.c **** 	.conn_epoch = 0,
  94:bluetooth_rxtx.c **** 	.do_follow = 1,
  95:bluetooth_rxtx.c **** 	.target_set = 0,
  96:bluetooth_rxtx.c **** 	.last_packet = 0,
  97:bluetooth_rxtx.c **** };
  98:bluetooth_rxtx.c **** 
  99:bluetooth_rxtx.c **** typedef struct _le_promisc_active_aa_t {
 100:bluetooth_rxtx.c **** 	u32 aa;
 101:bluetooth_rxtx.c **** 	int count;
 102:bluetooth_rxtx.c **** } le_promisc_active_aa_t;
 103:bluetooth_rxtx.c **** 
 104:bluetooth_rxtx.c **** typedef struct _le_promisc_state_t {
 105:bluetooth_rxtx.c **** 	// LFU cache of recently seen AA's
 106:bluetooth_rxtx.c **** 	le_promisc_active_aa_t active_aa[32];
 107:bluetooth_rxtx.c **** 
 108:bluetooth_rxtx.c **** 	// recovering hop interval
 109:bluetooth_rxtx.c **** 	u32 smallest_hop_interval;
 110:bluetooth_rxtx.c **** 	int consec_intervals;
 111:bluetooth_rxtx.c **** } le_promisc_state_t;
 112:bluetooth_rxtx.c **** le_promisc_state_t le_promisc;
 113:bluetooth_rxtx.c **** #define AA_LIST_SIZE (int)(sizeof(le_promisc.active_aa) / sizeof(le_promisc_active_aa_t))
 114:bluetooth_rxtx.c **** 
 115:bluetooth_rxtx.c **** /* LE jamming */
 116:bluetooth_rxtx.c **** #define JAM_COUNT_DEFAULT 40
 117:bluetooth_rxtx.c **** int le_jam_count = 0;
 118:bluetooth_rxtx.c **** 
 119:bluetooth_rxtx.c **** /* set LE access address */
 120:bluetooth_rxtx.c **** static void le_set_access_address(u32 aa);
 121:bluetooth_rxtx.c **** 
 122:bluetooth_rxtx.c **** typedef int (*data_cb_t)(char *);
 123:bluetooth_rxtx.c **** data_cb_t data_cb = NULL;
 124:bluetooth_rxtx.c **** 
 125:bluetooth_rxtx.c **** typedef void (*packet_cb_t)(u8 *);
 126:bluetooth_rxtx.c **** packet_cb_t packet_cb = NULL;
 127:bluetooth_rxtx.c **** 
 128:bluetooth_rxtx.c **** /* Unpacked symbol buffers (two rxbufs) */
 129:bluetooth_rxtx.c **** char unpacked[DMA_SIZE*8*2];
 130:bluetooth_rxtx.c **** 
 131:bluetooth_rxtx.c **** static int enqueue(uint8_t type, uint8_t* buf)
 132:bluetooth_rxtx.c **** {
 133:bluetooth_rxtx.c **** 	usb_pkt_rx* f = usb_enqueue();
 134:bluetooth_rxtx.c **** 
 135:bluetooth_rxtx.c **** 	/* fail if queue is full */
 136:bluetooth_rxtx.c **** 	if (f == NULL) {
 137:bluetooth_rxtx.c **** 		status |= FIFO_OVERFLOW;
 138:bluetooth_rxtx.c **** 		return 0;
 139:bluetooth_rxtx.c **** 	}
 140:bluetooth_rxtx.c **** 
 141:bluetooth_rxtx.c **** 	f->pkt_type = type;
 142:bluetooth_rxtx.c **** 	if(type == SPECAN) {
 143:bluetooth_rxtx.c **** 		f->clkn_high = (clkn >> 20) & 0xff;
 144:bluetooth_rxtx.c **** 		f->clk100ns = CLK100NS;
 145:bluetooth_rxtx.c **** 	} else {
 146:bluetooth_rxtx.c **** 		f->clkn_high = idle_buf_clkn_high;
ARM GAS  /tmp/ccwF1FQu.s 			page 4


 147:bluetooth_rxtx.c **** 		f->clk100ns = idle_buf_clk100ns;
 148:bluetooth_rxtx.c **** 		f->channel = (uint8_t)((idle_buf_channel - 2402) & 0xff);
 149:bluetooth_rxtx.c **** 		f->rssi_min = rssi_min;
 150:bluetooth_rxtx.c **** 		f->rssi_max = rssi_max;
 151:bluetooth_rxtx.c **** 		f->rssi_avg = rssi_get_avg(idle_buf_channel);
 152:bluetooth_rxtx.c **** 		f->rssi_count = rssi_count;
 153:bluetooth_rxtx.c **** 	}
 154:bluetooth_rxtx.c **** 
 155:bluetooth_rxtx.c **** 	memcpy(f->data, buf, DMA_SIZE);
 156:bluetooth_rxtx.c **** 
 157:bluetooth_rxtx.c **** 	f->status = status;
 158:bluetooth_rxtx.c **** 	status = 0;
 159:bluetooth_rxtx.c **** 
 160:bluetooth_rxtx.c **** 	return 1;
 161:bluetooth_rxtx.c **** }
 162:bluetooth_rxtx.c **** 
 163:bluetooth_rxtx.c **** int enqueue_with_ts(uint8_t type, uint8_t* buf, uint32_t ts)
 164:bluetooth_rxtx.c **** {
 165:bluetooth_rxtx.c **** 	usb_pkt_rx* f = usb_enqueue();
 166:bluetooth_rxtx.c **** 
 167:bluetooth_rxtx.c **** 	/* fail if queue is full */
 168:bluetooth_rxtx.c **** 	if (f == NULL) {
 169:bluetooth_rxtx.c **** 		status |= FIFO_OVERFLOW;
 170:bluetooth_rxtx.c **** 		return 0;
 171:bluetooth_rxtx.c **** 	}
 172:bluetooth_rxtx.c **** 
 173:bluetooth_rxtx.c **** 	f->pkt_type = type;
 174:bluetooth_rxtx.c **** 
 175:bluetooth_rxtx.c **** 	f->clkn_high = 0;
 176:bluetooth_rxtx.c **** 	f->clk100ns = ts;
 177:bluetooth_rxtx.c **** 
 178:bluetooth_rxtx.c **** 	f->channel = (uint8_t)((channel - 2402) & 0xff);
 179:bluetooth_rxtx.c **** 	f->rssi_avg = 0;
 180:bluetooth_rxtx.c **** 	f->rssi_count = 0;
 181:bluetooth_rxtx.c **** 
 182:bluetooth_rxtx.c **** 	memcpy(f->data, buf, DMA_SIZE);
 183:bluetooth_rxtx.c **** 
 184:bluetooth_rxtx.c **** 	f->status = status;
 185:bluetooth_rxtx.c **** 	status = 0;
 186:bluetooth_rxtx.c **** 
 187:bluetooth_rxtx.c **** 	return 1;
 188:bluetooth_rxtx.c **** }
 189:bluetooth_rxtx.c **** 
 190:bluetooth_rxtx.c **** static int vendor_request_handler(uint8_t request, uint16_t* request_params, uint8_t* data, int* da
 191:bluetooth_rxtx.c **** {
 192:bluetooth_rxtx.c **** 	uint32_t clock;
 193:bluetooth_rxtx.c **** 	size_t length; // string length
 194:bluetooth_rxtx.c **** 	usb_pkt_rx* p = NULL;
 195:bluetooth_rxtx.c **** 	uint16_t reg_val;
 196:bluetooth_rxtx.c **** 	uint8_t i;
 197:bluetooth_rxtx.c **** 	unsigned data_in_len = request_params[2];
 198:bluetooth_rxtx.c **** 
 199:bluetooth_rxtx.c **** 	switch (request) {
 200:bluetooth_rxtx.c **** 
 201:bluetooth_rxtx.c **** 	case UBERTOOTH_PING:
 202:bluetooth_rxtx.c **** 		*data_len = 0;
 203:bluetooth_rxtx.c **** 		break;
ARM GAS  /tmp/ccwF1FQu.s 			page 5


 204:bluetooth_rxtx.c **** 
 205:bluetooth_rxtx.c **** 	case UBERTOOTH_RX_SYMBOLS:
 206:bluetooth_rxtx.c **** 		requested_mode = MODE_RX_SYMBOLS;
 207:bluetooth_rxtx.c **** 		*data_len = 0;
 208:bluetooth_rxtx.c **** 		break;
 209:bluetooth_rxtx.c **** 
 210:bluetooth_rxtx.c **** #ifdef TX_ENABLE
 211:bluetooth_rxtx.c **** 	case UBERTOOTH_TX_SYMBOLS:
 212:bluetooth_rxtx.c **** 		hop_mode = HOP_BLUETOOTH;
 213:bluetooth_rxtx.c **** 		requested_mode = MODE_TX_SYMBOLS;
 214:bluetooth_rxtx.c **** 		*data_len = 0;
 215:bluetooth_rxtx.c **** 		break;
 216:bluetooth_rxtx.c **** #endif
 217:bluetooth_rxtx.c **** 
 218:bluetooth_rxtx.c **** 	case UBERTOOTH_GET_USRLED:
 219:bluetooth_rxtx.c **** 		data[0] = (USRLED) ? 1 : 0;
 220:bluetooth_rxtx.c **** 		*data_len = 1;
 221:bluetooth_rxtx.c **** 		break;
 222:bluetooth_rxtx.c **** 
 223:bluetooth_rxtx.c **** 	case UBERTOOTH_SET_USRLED:
 224:bluetooth_rxtx.c **** 		if (request_params[0])
 225:bluetooth_rxtx.c **** 			USRLED_SET;
 226:bluetooth_rxtx.c **** 		else
 227:bluetooth_rxtx.c **** 			USRLED_CLR;
 228:bluetooth_rxtx.c **** 		break;
 229:bluetooth_rxtx.c **** 
 230:bluetooth_rxtx.c **** 	case UBERTOOTH_GET_RXLED:
 231:bluetooth_rxtx.c **** 		data[0] = (RXLED) ? 1 : 0;
 232:bluetooth_rxtx.c **** 		*data_len = 1;
 233:bluetooth_rxtx.c **** 		break;
 234:bluetooth_rxtx.c **** 
 235:bluetooth_rxtx.c **** 	case UBERTOOTH_SET_RXLED:
 236:bluetooth_rxtx.c **** 		if (request_params[0])
 237:bluetooth_rxtx.c **** 			RXLED_SET;
 238:bluetooth_rxtx.c **** 		else
 239:bluetooth_rxtx.c **** 			RXLED_CLR;
 240:bluetooth_rxtx.c **** 		break;
 241:bluetooth_rxtx.c **** 
 242:bluetooth_rxtx.c **** 	case UBERTOOTH_GET_TXLED:
 243:bluetooth_rxtx.c **** 		data[0] = (TXLED) ? 1 : 0;
 244:bluetooth_rxtx.c **** 		*data_len = 1;
 245:bluetooth_rxtx.c **** 		break;
 246:bluetooth_rxtx.c **** 
 247:bluetooth_rxtx.c **** 	case UBERTOOTH_SET_TXLED:
 248:bluetooth_rxtx.c **** 		if (request_params[0])
 249:bluetooth_rxtx.c **** 			TXLED_SET;
 250:bluetooth_rxtx.c **** 		else
 251:bluetooth_rxtx.c **** 			TXLED_CLR;
 252:bluetooth_rxtx.c **** 		break;
 253:bluetooth_rxtx.c **** 
 254:bluetooth_rxtx.c **** 	case UBERTOOTH_GET_1V8:
 255:bluetooth_rxtx.c **** 		data[0] = (CC1V8) ? 1 : 0;
 256:bluetooth_rxtx.c **** 		*data_len = 1;
 257:bluetooth_rxtx.c **** 		break;
 258:bluetooth_rxtx.c **** 
 259:bluetooth_rxtx.c **** 	case UBERTOOTH_SET_1V8:
 260:bluetooth_rxtx.c **** 		if (request_params[0])
ARM GAS  /tmp/ccwF1FQu.s 			page 6


 261:bluetooth_rxtx.c **** 			CC1V8_SET;
 262:bluetooth_rxtx.c **** 		else
 263:bluetooth_rxtx.c **** 			CC1V8_CLR;
 264:bluetooth_rxtx.c **** 		break;
 265:bluetooth_rxtx.c **** 
 266:bluetooth_rxtx.c **** 	case UBERTOOTH_GET_PARTNUM:
 267:bluetooth_rxtx.c **** 		get_part_num(data, data_len);
 268:bluetooth_rxtx.c **** 		break;
 269:bluetooth_rxtx.c **** 
 270:bluetooth_rxtx.c **** 	case UBERTOOTH_RESET:
 271:bluetooth_rxtx.c **** 		requested_mode = MODE_RESET;
 272:bluetooth_rxtx.c **** 		break;
 273:bluetooth_rxtx.c **** 
 274:bluetooth_rxtx.c **** 	case UBERTOOTH_GET_SERIAL:
 275:bluetooth_rxtx.c **** 		get_device_serial(data, data_len);
 276:bluetooth_rxtx.c **** 		break;
 277:bluetooth_rxtx.c **** 
 278:bluetooth_rxtx.c **** #ifdef UBERTOOTH_ONE
 279:bluetooth_rxtx.c **** 	case UBERTOOTH_GET_PAEN:
 280:bluetooth_rxtx.c **** 		data[0] = (PAEN) ? 1 : 0;
 281:bluetooth_rxtx.c **** 		*data_len = 1;
 282:bluetooth_rxtx.c **** 		break;
 283:bluetooth_rxtx.c **** 
 284:bluetooth_rxtx.c **** 	case UBERTOOTH_SET_PAEN:
 285:bluetooth_rxtx.c **** 		if (request_params[0])
 286:bluetooth_rxtx.c **** 			PAEN_SET;
 287:bluetooth_rxtx.c **** 		else
 288:bluetooth_rxtx.c **** 			PAEN_CLR;
 289:bluetooth_rxtx.c **** 		break;
 290:bluetooth_rxtx.c **** 
 291:bluetooth_rxtx.c **** 	case UBERTOOTH_GET_HGM:
 292:bluetooth_rxtx.c **** 		data[0] = (HGM) ? 1 : 0;
 293:bluetooth_rxtx.c **** 		*data_len = 1;
 294:bluetooth_rxtx.c **** 		break;
 295:bluetooth_rxtx.c **** 
 296:bluetooth_rxtx.c **** 	case UBERTOOTH_SET_HGM:
 297:bluetooth_rxtx.c **** 		if (request_params[0])
 298:bluetooth_rxtx.c **** 			HGM_SET;
 299:bluetooth_rxtx.c **** 		else
 300:bluetooth_rxtx.c **** 			HGM_CLR;
 301:bluetooth_rxtx.c **** 		break;
 302:bluetooth_rxtx.c **** #endif
 303:bluetooth_rxtx.c **** 
 304:bluetooth_rxtx.c **** #ifdef TX_ENABLE
 305:bluetooth_rxtx.c **** 	case UBERTOOTH_TX_TEST:
 306:bluetooth_rxtx.c **** 		requested_mode = MODE_TX_TEST;
 307:bluetooth_rxtx.c **** 		break;
 308:bluetooth_rxtx.c **** 
 309:bluetooth_rxtx.c **** 	case UBERTOOTH_GET_PALEVEL:
 310:bluetooth_rxtx.c **** 		data[0] = cc2400_get(FREND) & 0x7;
 311:bluetooth_rxtx.c **** 		*data_len = 1;
 312:bluetooth_rxtx.c **** 		break;
 313:bluetooth_rxtx.c **** 
 314:bluetooth_rxtx.c **** 	case UBERTOOTH_SET_PALEVEL:
 315:bluetooth_rxtx.c **** 		if( request_params[0] < 8 ) {
 316:bluetooth_rxtx.c **** 			cc2400_set(FREND, 8 | request_params[0]);
 317:bluetooth_rxtx.c **** 		} else {
ARM GAS  /tmp/ccwF1FQu.s 			page 7


 318:bluetooth_rxtx.c **** 			return 0;
 319:bluetooth_rxtx.c **** 		}
 320:bluetooth_rxtx.c **** 		break;
 321:bluetooth_rxtx.c **** 
 322:bluetooth_rxtx.c **** 	case UBERTOOTH_RANGE_TEST:
 323:bluetooth_rxtx.c **** 		requested_mode = MODE_RANGE_TEST;
 324:bluetooth_rxtx.c **** 		break;
 325:bluetooth_rxtx.c **** 
 326:bluetooth_rxtx.c **** 	case UBERTOOTH_REPEATER:
 327:bluetooth_rxtx.c **** 		requested_mode = MODE_REPEATER;
 328:bluetooth_rxtx.c **** 		break;
 329:bluetooth_rxtx.c **** #endif
 330:bluetooth_rxtx.c **** 
 331:bluetooth_rxtx.c **** 	case UBERTOOTH_RANGE_CHECK:
 332:bluetooth_rxtx.c **** 		data[0] = rr.valid;
 333:bluetooth_rxtx.c **** 		data[1] = rr.request_pa;
 334:bluetooth_rxtx.c **** 		data[2] = rr.request_num;
 335:bluetooth_rxtx.c **** 		data[3] = rr.reply_pa;
 336:bluetooth_rxtx.c **** 		data[4] = rr.reply_num;
 337:bluetooth_rxtx.c **** 		*data_len = 5;
 338:bluetooth_rxtx.c **** 		break;
 339:bluetooth_rxtx.c **** 
 340:bluetooth_rxtx.c **** 	case UBERTOOTH_STOP:
 341:bluetooth_rxtx.c **** 		requested_mode = MODE_IDLE;
 342:bluetooth_rxtx.c **** 		break;
 343:bluetooth_rxtx.c **** 
 344:bluetooth_rxtx.c **** 	case UBERTOOTH_GET_MOD:
 345:bluetooth_rxtx.c **** 		data[0] = modulation;
 346:bluetooth_rxtx.c **** 		*data_len = 1;
 347:bluetooth_rxtx.c **** 		break;
 348:bluetooth_rxtx.c **** 
 349:bluetooth_rxtx.c **** 	case UBERTOOTH_SET_MOD:
 350:bluetooth_rxtx.c **** 		modulation = request_params[0];
 351:bluetooth_rxtx.c **** 		break;
 352:bluetooth_rxtx.c **** 
 353:bluetooth_rxtx.c **** 	case UBERTOOTH_GET_CHANNEL:
 354:bluetooth_rxtx.c **** 		data[0] = channel & 0xFF;
 355:bluetooth_rxtx.c **** 		data[1] = (channel >> 8) & 0xFF;
 356:bluetooth_rxtx.c **** 		*data_len = 2;
 357:bluetooth_rxtx.c **** 		break;
 358:bluetooth_rxtx.c **** 
 359:bluetooth_rxtx.c **** 	case UBERTOOTH_SET_CHANNEL:
 360:bluetooth_rxtx.c **** 		requested_channel = request_params[0];
 361:bluetooth_rxtx.c **** 		/* bluetooth band sweep mode, start at channel 2402 */
 362:bluetooth_rxtx.c **** 		if (requested_channel > MAX_FREQ) {
 363:bluetooth_rxtx.c **** 			hop_mode = HOP_SWEEP;
 364:bluetooth_rxtx.c **** 			requested_channel = 2402;
 365:bluetooth_rxtx.c **** 		}
 366:bluetooth_rxtx.c **** 		/* fixed channel mode, can be outside bluetooth band */
 367:bluetooth_rxtx.c **** 		else {
 368:bluetooth_rxtx.c **** 			hop_mode = HOP_NONE;
 369:bluetooth_rxtx.c **** 			requested_channel = MAX(requested_channel, MIN_FREQ);
 370:bluetooth_rxtx.c **** 			requested_channel = MIN(requested_channel, MAX_FREQ);
 371:bluetooth_rxtx.c **** 		}
 372:bluetooth_rxtx.c **** 
 373:bluetooth_rxtx.c **** 		le_adv_channel = requested_channel;
 374:bluetooth_rxtx.c **** 		if (mode != MODE_BT_FOLLOW_LE) {
ARM GAS  /tmp/ccwF1FQu.s 			page 8


 375:bluetooth_rxtx.c **** 			channel = requested_channel;
 376:bluetooth_rxtx.c **** 			requested_channel = 0;
 377:bluetooth_rxtx.c **** 
 378:bluetooth_rxtx.c **** 			/* CS threshold is mode-dependent. Update it after
 379:bluetooth_rxtx.c **** 			 * possible mode change. TODO - kludgy. */
 380:bluetooth_rxtx.c **** 			cs_threshold_calc_and_set(channel);
 381:bluetooth_rxtx.c **** 		}
 382:bluetooth_rxtx.c **** 		break;
 383:bluetooth_rxtx.c **** 
 384:bluetooth_rxtx.c **** 	case UBERTOOTH_SET_ISP:
 385:bluetooth_rxtx.c **** 		set_isp();
 386:bluetooth_rxtx.c **** 		*data_len = 0; /* should never return */
 387:bluetooth_rxtx.c **** 		break;
 388:bluetooth_rxtx.c **** 
 389:bluetooth_rxtx.c **** 	case UBERTOOTH_FLASH:
 390:bluetooth_rxtx.c **** 		bootloader_ctrl = DFU_MODE;
 391:bluetooth_rxtx.c **** 		requested_mode = MODE_RESET;
 392:bluetooth_rxtx.c **** 		break;
 393:bluetooth_rxtx.c **** 
 394:bluetooth_rxtx.c **** 	case UBERTOOTH_SPECAN:
 395:bluetooth_rxtx.c **** 		if (request_params[0] < 2049 || request_params[0] > 3072 ||
 396:bluetooth_rxtx.c **** 				request_params[1] < 2049 || request_params[1] > 3072 ||
 397:bluetooth_rxtx.c **** 				request_params[1] < request_params[0])
 398:bluetooth_rxtx.c **** 			return 0;
 399:bluetooth_rxtx.c **** 		low_freq = request_params[0];
 400:bluetooth_rxtx.c **** 		high_freq = request_params[1];
 401:bluetooth_rxtx.c **** 		requested_mode = MODE_SPECAN;
 402:bluetooth_rxtx.c **** 		*data_len = 0;
 403:bluetooth_rxtx.c **** 		break;
 404:bluetooth_rxtx.c **** 
 405:bluetooth_rxtx.c **** 	case UBERTOOTH_RX_GENERIC:
 406:bluetooth_rxtx.c **** 		requested_mode = MODE_RX_GENERIC;
 407:bluetooth_rxtx.c **** 		*data_len = 0;
 408:bluetooth_rxtx.c **** 		break;
 409:bluetooth_rxtx.c **** 
 410:bluetooth_rxtx.c **** 	case UBERTOOTH_LED_SPECAN:
 411:bluetooth_rxtx.c **** 		if (request_params[0] > 256)
 412:bluetooth_rxtx.c **** 			return 0;
 413:bluetooth_rxtx.c **** 		rssi_threshold = 54 - request_params[0];
 414:bluetooth_rxtx.c **** 		requested_mode = MODE_LED_SPECAN;
 415:bluetooth_rxtx.c **** 		*data_len = 0;
 416:bluetooth_rxtx.c **** 		break;
 417:bluetooth_rxtx.c **** 
 418:bluetooth_rxtx.c **** 	case UBERTOOTH_GET_REV_NUM:
 419:bluetooth_rxtx.c **** 		data[0] = 0x00;
 420:bluetooth_rxtx.c **** 		data[1] = 0x00;
 421:bluetooth_rxtx.c **** 
 422:bluetooth_rxtx.c **** 		length = (u8)strlen(GIT_REVISION);
 423:bluetooth_rxtx.c **** 		data[2] = length;
 424:bluetooth_rxtx.c **** 
 425:bluetooth_rxtx.c **** 		memcpy(&data[3], GIT_REVISION, length);
 426:bluetooth_rxtx.c **** 
 427:bluetooth_rxtx.c **** 		*data_len = 2 + 1 + length;
 428:bluetooth_rxtx.c **** 		break;
 429:bluetooth_rxtx.c **** 
 430:bluetooth_rxtx.c **** 	case UBERTOOTH_GET_COMPILE_INFO:
 431:bluetooth_rxtx.c **** 		length = (u8)strlen(compile_info);
ARM GAS  /tmp/ccwF1FQu.s 			page 9


 432:bluetooth_rxtx.c **** 		data[0] = length;
 433:bluetooth_rxtx.c **** 		memcpy(&data[1], compile_info, length);
 434:bluetooth_rxtx.c **** 		*data_len = 1 + length;
 435:bluetooth_rxtx.c **** 		break;
 436:bluetooth_rxtx.c **** 
 437:bluetooth_rxtx.c **** 	case UBERTOOTH_GET_BOARD_ID:
 438:bluetooth_rxtx.c **** 		data[0] = BOARD_ID;
 439:bluetooth_rxtx.c **** 		*data_len = 1;
 440:bluetooth_rxtx.c **** 		break;
 441:bluetooth_rxtx.c **** 
 442:bluetooth_rxtx.c **** 	case UBERTOOTH_SET_SQUELCH:
 443:bluetooth_rxtx.c **** 		cs_threshold_req = (int8_t)request_params[0];
 444:bluetooth_rxtx.c **** 		cs_threshold_calc_and_set(channel);
 445:bluetooth_rxtx.c **** 		break;
 446:bluetooth_rxtx.c **** 
 447:bluetooth_rxtx.c **** 	case UBERTOOTH_GET_SQUELCH:
 448:bluetooth_rxtx.c **** 		data[0] = cs_threshold_req;
 449:bluetooth_rxtx.c **** 		*data_len = 1;
 450:bluetooth_rxtx.c **** 		break;
 451:bluetooth_rxtx.c **** 
 452:bluetooth_rxtx.c **** 	case UBERTOOTH_SET_BDADDR:
 453:bluetooth_rxtx.c **** 		target.address = 0;
 454:bluetooth_rxtx.c **** 		target.syncword = 0;
 455:bluetooth_rxtx.c **** 		for(int i=0; i < 8; i++) {
 456:bluetooth_rxtx.c **** 			target.address |= (uint64_t)data[i] << 8*i;
 457:bluetooth_rxtx.c **** 		}
 458:bluetooth_rxtx.c **** 		for(int i=0; i < 8; i++) {
 459:bluetooth_rxtx.c **** 			target.syncword |= (uint64_t)data[i+8] << 8*i;
 460:bluetooth_rxtx.c **** 		}
 461:bluetooth_rxtx.c **** 		precalc();
 462:bluetooth_rxtx.c **** 		break;
 463:bluetooth_rxtx.c **** 
 464:bluetooth_rxtx.c **** 	case UBERTOOTH_START_HOPPING:
 465:bluetooth_rxtx.c **** 		clkn_offset = 0;
 466:bluetooth_rxtx.c **** 		for(int i=0; i < 4; i++) {
 467:bluetooth_rxtx.c **** 			clkn_offset <<= 8;
 468:bluetooth_rxtx.c **** 			clkn_offset |= data[i];
 469:bluetooth_rxtx.c **** 		}
 470:bluetooth_rxtx.c **** 		hop_mode = HOP_BLUETOOTH;
 471:bluetooth_rxtx.c **** 		dma_discard = 1;
 472:bluetooth_rxtx.c **** 		DIO_SSEL_SET;
 473:bluetooth_rxtx.c **** 		clk100ns_offset = (data[4] << 8) | (data[5] << 0);
 474:bluetooth_rxtx.c **** 		requested_mode = MODE_BT_FOLLOW;
 475:bluetooth_rxtx.c **** 		break;
 476:bluetooth_rxtx.c **** 
 477:bluetooth_rxtx.c **** 	case UBERTOOTH_AFH:
 478:bluetooth_rxtx.c **** 		hop_mode = HOP_AFH;
 479:bluetooth_rxtx.c **** 		requested_mode = MODE_AFH;
 480:bluetooth_rxtx.c **** 
 481:bluetooth_rxtx.c **** 		for(int i=0; i < 10; i++) {
 482:bluetooth_rxtx.c **** 			afh_map[i] = 0;
 483:bluetooth_rxtx.c **** 		}
 484:bluetooth_rxtx.c **** 		used_channels = 0;
 485:bluetooth_rxtx.c **** 		afh_enabled = 1;
 486:bluetooth_rxtx.c **** 		break;
 487:bluetooth_rxtx.c **** 
 488:bluetooth_rxtx.c **** 	case UBERTOOTH_HOP:
ARM GAS  /tmp/ccwF1FQu.s 			page 10


 489:bluetooth_rxtx.c **** 		do_hop = 1;
 490:bluetooth_rxtx.c **** 		break;
 491:bluetooth_rxtx.c **** 
 492:bluetooth_rxtx.c **** 	case UBERTOOTH_SET_CLOCK:
 493:bluetooth_rxtx.c **** 		clock = data[0] | data[1] << 8 | data[2] << 16 | data[3] << 24;
 494:bluetooth_rxtx.c **** 		clkn = clock;
 495:bluetooth_rxtx.c **** 		cs_threshold_calc_and_set(channel);
 496:bluetooth_rxtx.c **** 		break;
 497:bluetooth_rxtx.c **** 
 498:bluetooth_rxtx.c **** 	case UBERTOOTH_SET_AFHMAP:
 499:bluetooth_rxtx.c **** 		for(int i=0; i < 10; i++) {
 500:bluetooth_rxtx.c **** 			afh_map[i] = data[i];
 501:bluetooth_rxtx.c **** 		}
 502:bluetooth_rxtx.c **** 		afh_enabled = 1;
 503:bluetooth_rxtx.c **** 		*data_len = 10;
 504:bluetooth_rxtx.c **** 		break;
 505:bluetooth_rxtx.c **** 
 506:bluetooth_rxtx.c **** 	case UBERTOOTH_CLEAR_AFHMAP:
 507:bluetooth_rxtx.c **** 		for(int i=0; i < 10; i++) {
 508:bluetooth_rxtx.c **** 			afh_map[i] = 0;
 509:bluetooth_rxtx.c **** 		}
 510:bluetooth_rxtx.c **** 		afh_enabled = 0;
 511:bluetooth_rxtx.c **** 		*data_len = 10;
 512:bluetooth_rxtx.c **** 		break;
 513:bluetooth_rxtx.c **** 
 514:bluetooth_rxtx.c **** 	case UBERTOOTH_GET_CLOCK:
 515:bluetooth_rxtx.c **** 		clock = clkn;
 516:bluetooth_rxtx.c **** 		for(int i=0; i < 4; i++) {
 517:bluetooth_rxtx.c **** 			data[i] = (clock >> (8*i)) & 0xff;
 518:bluetooth_rxtx.c **** 		}
 519:bluetooth_rxtx.c **** 		*data_len = 4;
 520:bluetooth_rxtx.c **** 		break;
 521:bluetooth_rxtx.c **** 
 522:bluetooth_rxtx.c **** 	case UBERTOOTH_TRIM_CLOCK:
 523:bluetooth_rxtx.c **** 		clk100ns_offset = (data[0] << 8) | (data[1] << 0);
 524:bluetooth_rxtx.c **** 		break;
 525:bluetooth_rxtx.c **** 
 526:bluetooth_rxtx.c **** 	case UBERTOOTH_FIX_CLOCK_DRIFT:
 527:bluetooth_rxtx.c **** 		clk_drift_ppm += (int16_t)(data[0] << 8) | (data[1] << 0);
 528:bluetooth_rxtx.c **** 
 529:bluetooth_rxtx.c **** 		// Too slow
 530:bluetooth_rxtx.c **** 		if (clk_drift_ppm < 0) {
 531:bluetooth_rxtx.c **** 			clk_drift_correction = 320 / (uint16_t)(-clk_drift_ppm);
 532:bluetooth_rxtx.c **** 			clkn_next_drift_fix = clkn_last_drift_fix + clk_drift_correction;
 533:bluetooth_rxtx.c **** 		}
 534:bluetooth_rxtx.c **** 		// Too fast
 535:bluetooth_rxtx.c **** 		else if (clk_drift_ppm > 0) {
 536:bluetooth_rxtx.c **** 			clk_drift_correction = 320 / clk_drift_ppm;
 537:bluetooth_rxtx.c **** 			clkn_next_drift_fix = clkn_last_drift_fix + clk_drift_correction;
 538:bluetooth_rxtx.c **** 		}
 539:bluetooth_rxtx.c **** 		// Don't trim
 540:bluetooth_rxtx.c **** 		else {
 541:bluetooth_rxtx.c **** 			clk_drift_correction = 0;
 542:bluetooth_rxtx.c **** 			clkn_next_drift_fix = 0;
 543:bluetooth_rxtx.c **** 		}
 544:bluetooth_rxtx.c **** 
 545:bluetooth_rxtx.c **** 		break;
ARM GAS  /tmp/ccwF1FQu.s 			page 11


 546:bluetooth_rxtx.c **** 
 547:bluetooth_rxtx.c **** 	case UBERTOOTH_BTLE_SNIFFING:
 548:bluetooth_rxtx.c **** 		le.do_follow = request_params[0];
 549:bluetooth_rxtx.c **** 		*data_len = 0;
 550:bluetooth_rxtx.c **** 
 551:bluetooth_rxtx.c **** 		do_hop = 0;
 552:bluetooth_rxtx.c **** 		hop_mode = HOP_BTLE;
 553:bluetooth_rxtx.c **** 		requested_mode = MODE_BT_FOLLOW_LE;
 554:bluetooth_rxtx.c **** 
 555:bluetooth_rxtx.c **** 		usb_queue_init();
 556:bluetooth_rxtx.c **** 		cs_threshold_calc_and_set(channel);
 557:bluetooth_rxtx.c **** 		break;
 558:bluetooth_rxtx.c **** 
 559:bluetooth_rxtx.c **** 	case UBERTOOTH_GET_ACCESS_ADDRESS:
 560:bluetooth_rxtx.c **** 		for(int i=0; i < 4; i++) {
 561:bluetooth_rxtx.c **** 			data[i] = (le.access_address >> (8*i)) & 0xff;
 562:bluetooth_rxtx.c **** 		}
 563:bluetooth_rxtx.c **** 		*data_len = 4;
 564:bluetooth_rxtx.c **** 		break;
 565:bluetooth_rxtx.c **** 
 566:bluetooth_rxtx.c **** 	case UBERTOOTH_SET_ACCESS_ADDRESS:
 567:bluetooth_rxtx.c **** 		le_set_access_address(data[0] | data[1] << 8 | data[2] << 16 | data[3] << 24);
 568:bluetooth_rxtx.c **** 		le.target_set = 1;
 569:bluetooth_rxtx.c **** 		break;
 570:bluetooth_rxtx.c **** 
 571:bluetooth_rxtx.c **** 	case UBERTOOTH_DO_SOMETHING:
 572:bluetooth_rxtx.c **** 		// do something! just don't commit anything here
 573:bluetooth_rxtx.c **** 		break;
 574:bluetooth_rxtx.c **** 
 575:bluetooth_rxtx.c **** 	case UBERTOOTH_DO_SOMETHING_REPLY:
 576:bluetooth_rxtx.c **** 		// after you do something, tell me what you did!
 577:bluetooth_rxtx.c **** 		// don't commit here please
 578:bluetooth_rxtx.c **** 		data[0] = 0x13;
 579:bluetooth_rxtx.c **** 		data[1] = 0x37;
 580:bluetooth_rxtx.c **** 		*data_len = 2;
 581:bluetooth_rxtx.c **** 		break;
 582:bluetooth_rxtx.c **** 
 583:bluetooth_rxtx.c **** 	case UBERTOOTH_GET_CRC_VERIFY:
 584:bluetooth_rxtx.c **** 		data[0] = le.crc_verify ? 1 : 0;
 585:bluetooth_rxtx.c **** 		*data_len = 1;
 586:bluetooth_rxtx.c **** 		break;
 587:bluetooth_rxtx.c **** 
 588:bluetooth_rxtx.c **** 	case UBERTOOTH_SET_CRC_VERIFY:
 589:bluetooth_rxtx.c **** 		le.crc_verify = request_params[0] ? 1 : 0;
 590:bluetooth_rxtx.c **** 		break;
 591:bluetooth_rxtx.c **** 
 592:bluetooth_rxtx.c **** 	case UBERTOOTH_POLL:
 593:bluetooth_rxtx.c **** 		p = dequeue();
 594:bluetooth_rxtx.c **** 		if (p != NULL) {
 595:bluetooth_rxtx.c **** 			memcpy(data, (void *)p, sizeof(usb_pkt_rx));
 596:bluetooth_rxtx.c **** 			*data_len = sizeof(usb_pkt_rx);
 597:bluetooth_rxtx.c **** 		} else {
 598:bluetooth_rxtx.c **** 			data[0] = 0;
 599:bluetooth_rxtx.c **** 			*data_len = 1;
 600:bluetooth_rxtx.c **** 		}
 601:bluetooth_rxtx.c **** 		break;
 602:bluetooth_rxtx.c **** 
ARM GAS  /tmp/ccwF1FQu.s 			page 12


 603:bluetooth_rxtx.c **** 	case UBERTOOTH_BTLE_PROMISC:
 604:bluetooth_rxtx.c **** 		*data_len = 0;
 605:bluetooth_rxtx.c **** 
 606:bluetooth_rxtx.c **** 		hop_mode = HOP_NONE;
 607:bluetooth_rxtx.c **** 		requested_mode = MODE_BT_PROMISC_LE;
 608:bluetooth_rxtx.c **** 
 609:bluetooth_rxtx.c **** 		usb_queue_init();
 610:bluetooth_rxtx.c **** 		cs_threshold_calc_and_set(channel);
 611:bluetooth_rxtx.c **** 		break;
 612:bluetooth_rxtx.c **** 
 613:bluetooth_rxtx.c **** 	case UBERTOOTH_READ_REGISTER:
 614:bluetooth_rxtx.c **** 		reg_val = cc2400_get(request_params[0]);
 615:bluetooth_rxtx.c **** 		data[0] = (reg_val >> 8) & 0xff;
 616:bluetooth_rxtx.c **** 		data[1] = reg_val & 0xff;
 617:bluetooth_rxtx.c **** 		*data_len = 2;
 618:bluetooth_rxtx.c **** 		break;
 619:bluetooth_rxtx.c **** 
 620:bluetooth_rxtx.c **** 	case UBERTOOTH_WRITE_REGISTER:
 621:bluetooth_rxtx.c **** 		cc2400_set(request_params[0] & 0xff, request_params[1]);
 622:bluetooth_rxtx.c **** 		break;
 623:bluetooth_rxtx.c **** 
 624:bluetooth_rxtx.c **** 	case UBERTOOTH_WRITE_REGISTERS:
 625:bluetooth_rxtx.c **** 		for(i=0; i<request_params[0]; i++) {
 626:bluetooth_rxtx.c **** 			reg_val = (data[(i*3)+1] << 8) | data[(i*3)+2];
 627:bluetooth_rxtx.c **** 			cc2400_set(data[i*3], reg_val);
 628:bluetooth_rxtx.c **** 		}
 629:bluetooth_rxtx.c **** 		break;
 630:bluetooth_rxtx.c **** 
 631:bluetooth_rxtx.c **** 	case UBERTOOTH_READ_ALL_REGISTERS:
 632:bluetooth_rxtx.c **** 		#define MAX_READ_REG 0x2d
 633:bluetooth_rxtx.c **** 		for(i=0; i<=MAX_READ_REG; i++) {
 634:bluetooth_rxtx.c **** 			reg_val = cc2400_get(i);
 635:bluetooth_rxtx.c **** 			data[i*3] = i;
 636:bluetooth_rxtx.c **** 			data[(i*3)+1] = (reg_val >> 8) & 0xff;
 637:bluetooth_rxtx.c **** 			data[(i*3)+2] = reg_val & 0xff;
 638:bluetooth_rxtx.c **** 		}
 639:bluetooth_rxtx.c **** 		*data_len = MAX_READ_REG*3;
 640:bluetooth_rxtx.c **** 		break;
 641:bluetooth_rxtx.c **** 
 642:bluetooth_rxtx.c **** #ifdef TX_ENABLE
 643:bluetooth_rxtx.c **** 	case UBERTOOTH_TX_GENERIC_PACKET:
 644:bluetooth_rxtx.c **** 		i = 7 + data[6];
 645:bluetooth_rxtx.c **** 		memcpy(&tx_pkt, data, i);
 646:bluetooth_rxtx.c **** 		//tx_pkt.channel = data[4] << 8 | data[5];
 647:bluetooth_rxtx.c **** 		requested_mode = MODE_TX_GENERIC;
 648:bluetooth_rxtx.c **** 		*data_len = 0;
 649:bluetooth_rxtx.c **** 		break;
 650:bluetooth_rxtx.c **** 
 651:bluetooth_rxtx.c **** 	case UBERTOOTH_BTLE_SLAVE:
 652:bluetooth_rxtx.c **** 		memcpy(slave_mac_address, data, 6);
 653:bluetooth_rxtx.c **** 		requested_mode = MODE_BT_SLAVE_LE;
 654:bluetooth_rxtx.c **** 		break;
 655:bluetooth_rxtx.c **** #endif
 656:bluetooth_rxtx.c **** 
 657:bluetooth_rxtx.c **** 	case UBERTOOTH_LE_SET_ADV_DATA:
 658:bluetooth_rxtx.c **** 		// make sure the data fits in our buffer
 659:bluetooth_rxtx.c **** 		if (data_in_len > LE_ADV_MAX_LEN)
ARM GAS  /tmp/ccwF1FQu.s 			page 13


 660:bluetooth_rxtx.c **** 			return 0;
 661:bluetooth_rxtx.c **** 		le_adv_len = data_in_len;
 662:bluetooth_rxtx.c **** 		memcpy(le_adv_data, data, le_adv_len);
 663:bluetooth_rxtx.c **** 		break;
 664:bluetooth_rxtx.c **** 
 665:bluetooth_rxtx.c **** 	case UBERTOOTH_BTLE_SET_TARGET:
 666:bluetooth_rxtx.c **** 		// Addresses appear in packets in reverse-octet order.
 667:bluetooth_rxtx.c **** 		// Store the target address in reverse order so that we can do a simple memcmp later
 668:bluetooth_rxtx.c **** 		if (data[6] > 48) {
 669:bluetooth_rxtx.c **** 			return 0; // invalid mask
 670:bluetooth_rxtx.c **** 		}
 671:bluetooth_rxtx.c **** 		else if (data[6] == 0) {
 672:bluetooth_rxtx.c **** 			le.target_set = 0;
 673:bluetooth_rxtx.c **** 			memset(le.target, 0, 6);
 674:bluetooth_rxtx.c **** 			memset(le.target_mask, 0, 6);
 675:bluetooth_rxtx.c **** 		} else {
 676:bluetooth_rxtx.c **** 			unsigned last;
 677:bluetooth_rxtx.c **** 
 678:bluetooth_rxtx.c **** 			for (i = 0; i < 6; ++i)
 679:bluetooth_rxtx.c **** 				le.target[i] = data[5-i];
 680:bluetooth_rxtx.c **** 
 681:bluetooth_rxtx.c **** 			// compute mask
 682:bluetooth_rxtx.c **** 			memset(le.target_mask, 0, 6);
 683:bluetooth_rxtx.c **** 			for (i = 5; data[6] > 8; --i, data[6] -= 8) {
 684:bluetooth_rxtx.c **** 				le.target_mask[i] = 0xff;
 685:bluetooth_rxtx.c **** 			}
 686:bluetooth_rxtx.c **** 			last = i;
 687:bluetooth_rxtx.c **** 
 688:bluetooth_rxtx.c **** 			if (data[6] > 0) {
 689:bluetooth_rxtx.c **** 				uint8_t final_byte = 0;
 690:bluetooth_rxtx.c **** 				for (i = 0; i < data[6]; ++i) {
 691:bluetooth_rxtx.c **** 					final_byte >>= 1;
 692:bluetooth_rxtx.c **** 					final_byte |= 0b10000000;
 693:bluetooth_rxtx.c **** 				}
 694:bluetooth_rxtx.c **** 				le.target_mask[last] = final_byte;
 695:bluetooth_rxtx.c **** 			}
 696:bluetooth_rxtx.c **** 
 697:bluetooth_rxtx.c **** 			// in case the user specifies a bad mask
 698:bluetooth_rxtx.c **** 			for (i = 0; i < 5; ++i)
 699:bluetooth_rxtx.c **** 				le.target[i] &= le.target_mask[i];
 700:bluetooth_rxtx.c **** 
 701:bluetooth_rxtx.c **** 			le.target_set = 1;
 702:bluetooth_rxtx.c **** 		}
 703:bluetooth_rxtx.c **** 		break;
 704:bluetooth_rxtx.c **** 
 705:bluetooth_rxtx.c **** 	case UBERTOOTH_CANCEL_FOLLOW:
 706:bluetooth_rxtx.c **** 		// cancel following an active connection
 707:bluetooth_rxtx.c **** 		cancel_follow = 1;
 708:bluetooth_rxtx.c **** 		break;
 709:bluetooth_rxtx.c **** 
 710:bluetooth_rxtx.c **** #ifdef TX_ENABLE
 711:bluetooth_rxtx.c **** 	case UBERTOOTH_JAM_MODE:
 712:bluetooth_rxtx.c **** 		jam_mode = request_params[0];
 713:bluetooth_rxtx.c **** 		break;
 714:bluetooth_rxtx.c **** #endif
 715:bluetooth_rxtx.c **** 
 716:bluetooth_rxtx.c **** 	case UBERTOOTH_EGO:
ARM GAS  /tmp/ccwF1FQu.s 			page 14


 717:bluetooth_rxtx.c **** 		ego_mode = request_params[0];
 718:bluetooth_rxtx.c **** #ifndef TX_ENABLE
 719:bluetooth_rxtx.c **** 		if (ego_mode == EGO_JAM)
 720:bluetooth_rxtx.c **** 			return 0;
 721:bluetooth_rxtx.c **** #endif
 722:bluetooth_rxtx.c **** 		requested_mode = MODE_EGO;
 723:bluetooth_rxtx.c **** 		break;
 724:bluetooth_rxtx.c **** 
 725:bluetooth_rxtx.c **** 	case UBERTOOTH_RFCAT_SUBCMD:
 726:bluetooth_rxtx.c **** 		return rfcat_subcommand(request_params[0], data, *data_len);
 727:bluetooth_rxtx.c **** 		break;
 728:bluetooth_rxtx.c **** 
 729:bluetooth_rxtx.c **** 	case UBERTOOTH_XMAS:
 730:bluetooth_rxtx.c **** 		requested_mode = MODE_XMAS;
 731:bluetooth_rxtx.c **** 		break;
 732:bluetooth_rxtx.c **** 
 733:bluetooth_rxtx.c **** 	default:
 734:bluetooth_rxtx.c **** 		return 0;
 735:bluetooth_rxtx.c **** 	}
 736:bluetooth_rxtx.c **** 	return 1;
 737:bluetooth_rxtx.c **** }
 738:bluetooth_rxtx.c **** 
 739:bluetooth_rxtx.c **** /* Update CLKN. */
 740:bluetooth_rxtx.c **** void TIMER0_IRQHandler()
 741:bluetooth_rxtx.c **** {
 742:bluetooth_rxtx.c **** 	if (T0IR & TIR_MR0_Interrupt) {
 743:bluetooth_rxtx.c **** 
 744:bluetooth_rxtx.c **** 		clkn += clkn_offset + 1;
 745:bluetooth_rxtx.c **** 		clkn_offset = 0;
 746:bluetooth_rxtx.c **** 
 747:bluetooth_rxtx.c **** 		uint32_t le_clk = (clkn - le.conn_epoch) & 0x03;
 748:bluetooth_rxtx.c **** 
 749:bluetooth_rxtx.c **** 		/* Trigger hop based on mode */
 750:bluetooth_rxtx.c **** 
 751:bluetooth_rxtx.c **** 		/* NONE or SWEEP -> 25 Hz */
 752:bluetooth_rxtx.c **** 		if (hop_mode == HOP_NONE || hop_mode == HOP_SWEEP) {
 753:bluetooth_rxtx.c **** 			if ((clkn & 0x7f) == 0)
 754:bluetooth_rxtx.c **** 				do_hop = 1;
 755:bluetooth_rxtx.c **** 		}
 756:bluetooth_rxtx.c **** 		/* BLUETOOTH -> 1600 Hz */
 757:bluetooth_rxtx.c **** 		else if (hop_mode == HOP_BLUETOOTH) {
 758:bluetooth_rxtx.c **** 			if ((clkn & 0x1) == 0)
 759:bluetooth_rxtx.c **** 				do_hop = 1;
 760:bluetooth_rxtx.c **** 		}
 761:bluetooth_rxtx.c **** 		/* BLUETOOTH Low Energy -> 7.5ms - 4.0s in multiples of 1.25 ms */
 762:bluetooth_rxtx.c **** 		else if (hop_mode == HOP_BTLE) {
 763:bluetooth_rxtx.c **** 			// Only hop if connected
 764:bluetooth_rxtx.c **** 			if (le.link_state == LINK_CONNECTED && le_clk == 0) {
 765:bluetooth_rxtx.c **** 				--le.interval_timer;
 766:bluetooth_rxtx.c **** 				if (le.interval_timer == 0) {
 767:bluetooth_rxtx.c **** 					do_hop = 1;
 768:bluetooth_rxtx.c **** 					++le.conn_count;
 769:bluetooth_rxtx.c **** 					le.interval_timer = le.conn_interval;
 770:bluetooth_rxtx.c **** 				} else {
 771:bluetooth_rxtx.c **** 					TXLED_CLR; // hack!
 772:bluetooth_rxtx.c **** 				}
 773:bluetooth_rxtx.c **** 			}
ARM GAS  /tmp/ccwF1FQu.s 			page 15


 774:bluetooth_rxtx.c **** 		}
 775:bluetooth_rxtx.c **** 		else if (hop_mode == HOP_AFH) {
 776:bluetooth_rxtx.c **** 			if( (last_hop + hop_timeout) == clkn ) {
 777:bluetooth_rxtx.c **** 				do_hop = 1;
 778:bluetooth_rxtx.c **** 			}
 779:bluetooth_rxtx.c **** 		}
 780:bluetooth_rxtx.c **** 
 781:bluetooth_rxtx.c **** 		// Fix linear clock drift deviation
 782:bluetooth_rxtx.c **** 		if(clkn_next_drift_fix != 0 && clk100ns_offset == 0) {
 783:bluetooth_rxtx.c **** 			if(clkn >= clkn_next_drift_fix) {
 784:bluetooth_rxtx.c **** 
 785:bluetooth_rxtx.c **** 				// Too fast
 786:bluetooth_rxtx.c **** 				if(clk_drift_ppm >= 0) {
 787:bluetooth_rxtx.c **** 					clk100ns_offset = 1;
 788:bluetooth_rxtx.c **** 				}
 789:bluetooth_rxtx.c **** 
 790:bluetooth_rxtx.c **** 				// Too slow
 791:bluetooth_rxtx.c **** 				else {
 792:bluetooth_rxtx.c **** 					clk100ns_offset = 6249;
 793:bluetooth_rxtx.c **** 				}
 794:bluetooth_rxtx.c **** 				clkn_last_drift_fix = clkn;
 795:bluetooth_rxtx.c **** 				clkn_next_drift_fix = clkn_last_drift_fix + clk_drift_correction;
 796:bluetooth_rxtx.c **** 			}
 797:bluetooth_rxtx.c **** 		}
 798:bluetooth_rxtx.c **** 
 799:bluetooth_rxtx.c **** 		// Negative clock correction
 800:bluetooth_rxtx.c **** 		if(clk100ns_offset > 3124)
 801:bluetooth_rxtx.c **** 			clkn += 2;
 802:bluetooth_rxtx.c **** 
 803:bluetooth_rxtx.c **** 		T0MR0 = 3124 + clk100ns_offset;
 804:bluetooth_rxtx.c **** 		clk100ns_offset = 0;
 805:bluetooth_rxtx.c **** 
 806:bluetooth_rxtx.c **** 		/* Ack interrupt */
 807:bluetooth_rxtx.c **** 		T0IR = TIR_MR0_Interrupt;
 808:bluetooth_rxtx.c **** 	}
 809:bluetooth_rxtx.c **** }
 810:bluetooth_rxtx.c **** 
 811:bluetooth_rxtx.c **** /* EINT3 handler is also defined in ubertooth.c for TC13BADGE. */
 812:bluetooth_rxtx.c **** #ifndef TC13BADGE
 813:bluetooth_rxtx.c **** void EINT3_IRQHandler()
 814:bluetooth_rxtx.c **** {
 815:bluetooth_rxtx.c **** 	/* TODO - check specific source of shared interrupt */
 816:bluetooth_rxtx.c **** 	IO2IntClr   = PIN_GIO6; // clear interrupt
 817:bluetooth_rxtx.c **** 	DIO_SSEL_CLR;           // enable SPI
 818:bluetooth_rxtx.c **** 	cs_trigger  = 1;        // signal trigger
 819:bluetooth_rxtx.c **** 	if (hop_mode == HOP_BLUETOOTH)
 820:bluetooth_rxtx.c **** 		dma_discard = 0;
 821:bluetooth_rxtx.c **** 
 822:bluetooth_rxtx.c **** }
 823:bluetooth_rxtx.c **** #endif // TC13BADGE
 824:bluetooth_rxtx.c **** 
 825:bluetooth_rxtx.c **** /*
 826:bluetooth_rxtx.c ****  * Sleep (busy wait) for 'millis' milliseconds
 827:bluetooth_rxtx.c ****  * Needs clkn. Be sure to call clkn_init() before using it.
 828:bluetooth_rxtx.c ****  */
 829:bluetooth_rxtx.c **** static void msleep(uint32_t millis)
 830:bluetooth_rxtx.c **** {
ARM GAS  /tmp/ccwF1FQu.s 			page 16


 831:bluetooth_rxtx.c **** 	uint32_t now = (clkn & 0xffffff);
 832:bluetooth_rxtx.c **** 	uint32_t stop_at = now + millis * 10000 / 3125; // millis -> clkn ticks
 833:bluetooth_rxtx.c **** 
 834:bluetooth_rxtx.c **** 	// handle clkn overflow
 835:bluetooth_rxtx.c **** 	if (stop_at >= ((uint32_t)1<<28)) {
 836:bluetooth_rxtx.c **** 		stop_at -= ((uint32_t)1<<28);
 837:bluetooth_rxtx.c **** 		while ((clkn & 0xffffff) >= now || (clkn & 0xffffff) < stop_at);
 838:bluetooth_rxtx.c **** 	} else {
 839:bluetooth_rxtx.c **** 		while ((clkn & 0xffffff) < stop_at);
 840:bluetooth_rxtx.c **** 	}
 841:bluetooth_rxtx.c **** }
 842:bluetooth_rxtx.c **** 
 843:bluetooth_rxtx.c **** void legacy_DMA_IRQHandler();
 844:bluetooth_rxtx.c **** void le_DMA_IRQHandler();
 845:bluetooth_rxtx.c **** void DMA_IRQHandler(void) {
 846:bluetooth_rxtx.c **** 	if (mode == MODE_BT_FOLLOW_LE)
 847:bluetooth_rxtx.c **** 		le_DMA_IRQHandler();
 848:bluetooth_rxtx.c **** 	else
 849:bluetooth_rxtx.c **** 		legacy_DMA_IRQHandler();
 850:bluetooth_rxtx.c **** 
 851:bluetooth_rxtx.c **** 	// DMA channel 7: debug UART
 852:bluetooth_rxtx.c **** 	if (DMACIntStat & (1 << 7)) {
 853:bluetooth_rxtx.c **** 		// TC -- DMA completed, unset flag so another printf can occur
 854:bluetooth_rxtx.c **** 		if (DMACIntTCStat & (1 << 7)) {
 855:bluetooth_rxtx.c **** 			DMACIntTCClear = (1 << 7);
 856:bluetooth_rxtx.c **** 			debug_dma_active = 0;
 857:bluetooth_rxtx.c **** 		}
 858:bluetooth_rxtx.c **** 		// error -- blow up
 859:bluetooth_rxtx.c **** 		if (DMACIntErrStat & (1 << 7)) {
 860:bluetooth_rxtx.c **** 			DMACIntErrClr = (1 << 7);
 861:bluetooth_rxtx.c **** 			// FIXME do something better here
 862:bluetooth_rxtx.c **** 			USRLED_SET;
 863:bluetooth_rxtx.c **** 			while (1) { }
 864:bluetooth_rxtx.c **** 		}
 865:bluetooth_rxtx.c **** 	}
 866:bluetooth_rxtx.c **** }
 867:bluetooth_rxtx.c **** 
 868:bluetooth_rxtx.c **** void legacy_DMA_IRQHandler()
 869:bluetooth_rxtx.c **** {
 870:bluetooth_rxtx.c **** 	if ( mode == MODE_RX_SYMBOLS
 871:bluetooth_rxtx.c **** 	   || mode == MODE_BT_FOLLOW
 872:bluetooth_rxtx.c **** 	   || mode == MODE_SPECAN
 873:bluetooth_rxtx.c **** 	   || mode == MODE_BT_FOLLOW_LE
 874:bluetooth_rxtx.c **** 	   || mode == MODE_BT_PROMISC_LE
 875:bluetooth_rxtx.c **** 	   || mode == MODE_BT_SLAVE_LE
 876:bluetooth_rxtx.c **** 	   || mode == MODE_RX_GENERIC)
 877:bluetooth_rxtx.c **** 	{
 878:bluetooth_rxtx.c **** 		/* interrupt on channel 0 */
 879:bluetooth_rxtx.c **** 		if (DMACIntStat & (1 << 0)) {
 880:bluetooth_rxtx.c **** 			if (DMACIntTCStat & (1 << 0)) {
 881:bluetooth_rxtx.c **** 				DMACIntTCClear = (1 << 0);
 882:bluetooth_rxtx.c **** 
 883:bluetooth_rxtx.c **** 				if (hop_mode == HOP_BLUETOOTH)
 884:bluetooth_rxtx.c **** 					DIO_SSEL_SET;
 885:bluetooth_rxtx.c **** 
 886:bluetooth_rxtx.c **** 				idle_buf_clk100ns  = CLK100NS;
 887:bluetooth_rxtx.c **** 				idle_buf_clkn_high = (clkn >> 20) & 0xff;
ARM GAS  /tmp/ccwF1FQu.s 			page 17


 888:bluetooth_rxtx.c **** 				idle_buf_channel   = channel;
 889:bluetooth_rxtx.c **** 
 890:bluetooth_rxtx.c **** 				/* Keep buffer swapping in sync with DMA. */
 891:bluetooth_rxtx.c **** 				volatile uint8_t* tmp = active_rxbuf;
 892:bluetooth_rxtx.c **** 				active_rxbuf = idle_rxbuf;
 893:bluetooth_rxtx.c **** 				idle_rxbuf = tmp;
 894:bluetooth_rxtx.c **** 
 895:bluetooth_rxtx.c **** 				++rx_tc;
 896:bluetooth_rxtx.c **** 			}
 897:bluetooth_rxtx.c **** 			if (DMACIntErrStat & (1 << 0)) {
 898:bluetooth_rxtx.c **** 				DMACIntErrClr = (1 << 0);
 899:bluetooth_rxtx.c **** 				++rx_err;
 900:bluetooth_rxtx.c **** 			}
 901:bluetooth_rxtx.c **** 		}
 902:bluetooth_rxtx.c **** 	}
 903:bluetooth_rxtx.c **** }
 904:bluetooth_rxtx.c **** 
 905:bluetooth_rxtx.c **** static void cc2400_idle()
 906:bluetooth_rxtx.c **** {
 907:bluetooth_rxtx.c **** 	cc2400_strobe(SRFOFF);
 908:bluetooth_rxtx.c **** 	while ((cc2400_status() & FS_LOCK)); // need to wait for unlock?
 909:bluetooth_rxtx.c **** 
 910:bluetooth_rxtx.c **** #ifdef UBERTOOTH_ONE
 911:bluetooth_rxtx.c **** 	PAEN_CLR;
 912:bluetooth_rxtx.c **** 	HGM_CLR;
 913:bluetooth_rxtx.c **** #endif
 914:bluetooth_rxtx.c **** 
 915:bluetooth_rxtx.c **** 	RXLED_CLR;
 916:bluetooth_rxtx.c **** 	TXLED_CLR;
 917:bluetooth_rxtx.c **** 	USRLED_CLR;
 918:bluetooth_rxtx.c **** 
 919:bluetooth_rxtx.c **** 	clkn_stop();
 920:bluetooth_rxtx.c **** 	dio_ssp_stop();
 921:bluetooth_rxtx.c **** 	cs_reset();
 922:bluetooth_rxtx.c **** 	rssi_reset();
 923:bluetooth_rxtx.c **** 
 924:bluetooth_rxtx.c **** 	/* hopping stuff */
 925:bluetooth_rxtx.c **** 	hop_mode = HOP_NONE;
 926:bluetooth_rxtx.c **** 	do_hop = 0;
 927:bluetooth_rxtx.c **** 	channel = 2441;
 928:bluetooth_rxtx.c **** 	hop_direct_channel = 0;
 929:bluetooth_rxtx.c **** 	hop_timeout = 158;
 930:bluetooth_rxtx.c **** 	requested_channel = 0;
 931:bluetooth_rxtx.c **** 	le_adv_channel = 2402;
 932:bluetooth_rxtx.c **** 
 933:bluetooth_rxtx.c **** 
 934:bluetooth_rxtx.c **** 	/* bulk USB stuff */
 935:bluetooth_rxtx.c **** 	idle_buf_clkn_high = 0;
 936:bluetooth_rxtx.c **** 	idle_buf_clk100ns = 0;
 937:bluetooth_rxtx.c **** 	idle_buf_channel = 0;
 938:bluetooth_rxtx.c **** 	dma_discard = 0;
 939:bluetooth_rxtx.c **** 	status = 0;
 940:bluetooth_rxtx.c **** 
 941:bluetooth_rxtx.c **** 	/* operation mode */
 942:bluetooth_rxtx.c **** 	mode = MODE_IDLE;
 943:bluetooth_rxtx.c **** 	requested_mode = MODE_IDLE;
 944:bluetooth_rxtx.c **** 	jam_mode = JAM_NONE;
ARM GAS  /tmp/ccwF1FQu.s 			page 18


 945:bluetooth_rxtx.c **** 	ego_mode = EGO_FOLLOW;
 946:bluetooth_rxtx.c **** 
 947:bluetooth_rxtx.c **** 	modulation = MOD_BT_BASIC_RATE;
 948:bluetooth_rxtx.c **** 
 949:bluetooth_rxtx.c **** 	/* specan stuff */
 950:bluetooth_rxtx.c **** 	low_freq = 2400;
 951:bluetooth_rxtx.c **** 	high_freq = 2483;
 952:bluetooth_rxtx.c **** 	rssi_threshold = -30;
 953:bluetooth_rxtx.c **** 
 954:bluetooth_rxtx.c **** 	target.address = 0;
 955:bluetooth_rxtx.c **** 	target.syncword = 0;
 956:bluetooth_rxtx.c **** }
 957:bluetooth_rxtx.c **** 
 958:bluetooth_rxtx.c **** /* start un-buffered rx */
 959:bluetooth_rxtx.c **** static void cc2400_rx()
 960:bluetooth_rxtx.c **** {
 961:bluetooth_rxtx.c **** 	u16 mdmctrl = 0;
 962:bluetooth_rxtx.c **** 
 963:bluetooth_rxtx.c **** 	if((modulation == MOD_BT_BASIC_RATE) || (modulation == MOD_BT_LOW_ENERGY)) {
 964:bluetooth_rxtx.c **** 		if (modulation == MOD_BT_BASIC_RATE) {
 965:bluetooth_rxtx.c **** 			mdmctrl = 0x0029; // 160 kHz frequency deviation
 966:bluetooth_rxtx.c **** 		} else if (modulation == MOD_BT_LOW_ENERGY) {
 967:bluetooth_rxtx.c **** 			mdmctrl = 0x0040; // 250 kHz frequency deviation
 968:bluetooth_rxtx.c **** 		}
 969:bluetooth_rxtx.c **** 		cc2400_set(MANAND,  0x7fff);
 970:bluetooth_rxtx.c **** 		cc2400_set(LMTST,   0x2b22);
 971:bluetooth_rxtx.c **** 		cc2400_set(MDMTST0, 0x134b); // without PRNG
 972:bluetooth_rxtx.c **** 		cc2400_set(GRMDM,   0x0101); // un-buffered mode, GFSK
 973:bluetooth_rxtx.c **** 		// 0 00 00 0 010 00 0 00 0 1
 974:bluetooth_rxtx.c **** 		//      |  | |   |  +--------> CRC off
 975:bluetooth_rxtx.c **** 		//      |  | |   +-----------> sync word: 8 MSB bits of SYNC_WORD
 976:bluetooth_rxtx.c **** 		//      |  | +---------------> 2 preamble bytes of 01010101
 977:bluetooth_rxtx.c **** 		//      |  +-----------------> not packet mode
 978:bluetooth_rxtx.c **** 			//      +--------------------> un-buffered mode
 979:bluetooth_rxtx.c **** 		cc2400_set(FSDIV,   channel - 1); // 1 MHz IF
 980:bluetooth_rxtx.c **** 		cc2400_set(MDMCTRL, mdmctrl);
 981:bluetooth_rxtx.c **** 	}
 982:bluetooth_rxtx.c **** 
 983:bluetooth_rxtx.c **** 	// Set up CS register
 984:bluetooth_rxtx.c **** 	cs_threshold_calc_and_set(channel);
 985:bluetooth_rxtx.c **** 
 986:bluetooth_rxtx.c **** 	clkn_start();
 987:bluetooth_rxtx.c **** 
 988:bluetooth_rxtx.c **** 	while (!(cc2400_status() & XOSC16M_STABLE));
 989:bluetooth_rxtx.c **** 	cc2400_strobe(SFSON);
 990:bluetooth_rxtx.c **** 	while (!(cc2400_status() & FS_LOCK));
 991:bluetooth_rxtx.c **** 	cc2400_strobe(SRX);
 992:bluetooth_rxtx.c **** #ifdef UBERTOOTH_ONE
 993:bluetooth_rxtx.c **** 	PAEN_SET;
 994:bluetooth_rxtx.c **** 	HGM_SET;
 995:bluetooth_rxtx.c **** #endif
 996:bluetooth_rxtx.c **** }
 997:bluetooth_rxtx.c **** 
 998:bluetooth_rxtx.c **** /* start un-buffered rx */
 999:bluetooth_rxtx.c **** static void cc2400_rx_sync(u32 sync)
1000:bluetooth_rxtx.c **** {
1001:bluetooth_rxtx.c **** 	u16 grmdm, mdmctrl;
ARM GAS  /tmp/ccwF1FQu.s 			page 19


1002:bluetooth_rxtx.c **** 
1003:bluetooth_rxtx.c **** 	if (modulation == MOD_BT_BASIC_RATE) {
1004:bluetooth_rxtx.c **** 		mdmctrl = 0x0029; // 160 kHz frequency deviation
1005:bluetooth_rxtx.c **** 		grmdm = 0x0461; // un-buffered mode, packet w/ sync word detection
1006:bluetooth_rxtx.c **** 		// 0 00 00 1 000 11 0 00 0 1
1007:bluetooth_rxtx.c **** 		//   |  |  | |   |  +--------> CRC off
1008:bluetooth_rxtx.c **** 		//   |  |  | |   +-----------> sync word: 32 MSB bits of SYNC_WORD
1009:bluetooth_rxtx.c **** 		//   |  |  | +---------------> 0 preamble bytes of 01010101
1010:bluetooth_rxtx.c **** 		//   |  |  +-----------------> packet mode
1011:bluetooth_rxtx.c **** 		//   |  +--------------------> un-buffered mode
1012:bluetooth_rxtx.c **** 		//   +-----------------------> sync error bits: 0
1013:bluetooth_rxtx.c **** 
1014:bluetooth_rxtx.c **** 	} else if (modulation == MOD_BT_LOW_ENERGY) {
1015:bluetooth_rxtx.c **** 		mdmctrl = 0x0040; // 250 kHz frequency deviation
1016:bluetooth_rxtx.c **** 		grmdm = 0x0561; // un-buffered mode, packet w/ sync word detection
1017:bluetooth_rxtx.c **** 		// 0 00 00 1 010 11 0 00 0 1
1018:bluetooth_rxtx.c **** 		//   |  |  | |   |  +--------> CRC off
1019:bluetooth_rxtx.c **** 		//   |  |  | |   +-----------> sync word: 32 MSB bits of SYNC_WORD
1020:bluetooth_rxtx.c **** 		//   |  |  | +---------------> 2 preamble bytes of 01010101
1021:bluetooth_rxtx.c **** 		//   |  |  +-----------------> packet mode
1022:bluetooth_rxtx.c **** 		//   |  +--------------------> un-buffered mode
1023:bluetooth_rxtx.c **** 		//   +-----------------------> sync error bits: 0
1024:bluetooth_rxtx.c **** 
1025:bluetooth_rxtx.c **** 	} else {
1026:bluetooth_rxtx.c **** 		/* oops */
1027:bluetooth_rxtx.c **** 		return;
1028:bluetooth_rxtx.c **** 	}
1029:bluetooth_rxtx.c **** 
1030:bluetooth_rxtx.c **** 	cc2400_set(MANAND,  0x7fff);
1031:bluetooth_rxtx.c **** 	cc2400_set(LMTST,   0x2b22);
1032:bluetooth_rxtx.c **** 
1033:bluetooth_rxtx.c **** 	cc2400_set(MDMTST0, 0x124b);
1034:bluetooth_rxtx.c **** 	// 1      2      4b
1035:bluetooth_rxtx.c **** 	// 00 0 1 0 0 10 01001011
1036:bluetooth_rxtx.c **** 	//    | | | | |  +---------> AFC_DELTA = ??
1037:bluetooth_rxtx.c **** 	//    | | | | +------------> AFC settling = 4 pairs (8 bit preamble)
1038:bluetooth_rxtx.c **** 	//    | | | +--------------> no AFC adjust on packet
1039:bluetooth_rxtx.c **** 	//    | | +----------------> do not invert data
1040:bluetooth_rxtx.c **** 	//    | +------------------> TX IF freq 1 0Hz
1041:bluetooth_rxtx.c **** 	//    +--------------------> PRNG off
1042:bluetooth_rxtx.c **** 	//
1043:bluetooth_rxtx.c **** 	// ref: CC2400 datasheet page 67
1044:bluetooth_rxtx.c **** 	// AFC settling explained page 41/42
1045:bluetooth_rxtx.c **** 
1046:bluetooth_rxtx.c **** 	cc2400_set(GRMDM,   grmdm);
1047:bluetooth_rxtx.c **** 
1048:bluetooth_rxtx.c **** 	cc2400_set(SYNCL,   sync & 0xffff);
1049:bluetooth_rxtx.c **** 	cc2400_set(SYNCH,   (sync >> 16) & 0xffff);
1050:bluetooth_rxtx.c **** 
1051:bluetooth_rxtx.c **** 	cc2400_set(FSDIV,   channel - 1); // 1 MHz IF
1052:bluetooth_rxtx.c **** 	cc2400_set(MDMCTRL, mdmctrl);
1053:bluetooth_rxtx.c **** 
1054:bluetooth_rxtx.c **** 	// Set up CS register
1055:bluetooth_rxtx.c **** 	cs_threshold_calc_and_set(channel);
1056:bluetooth_rxtx.c **** 
1057:bluetooth_rxtx.c **** 	clkn_start();
1058:bluetooth_rxtx.c **** 
ARM GAS  /tmp/ccwF1FQu.s 			page 20


1059:bluetooth_rxtx.c **** 	while (!(cc2400_status() & XOSC16M_STABLE));
1060:bluetooth_rxtx.c **** 	cc2400_strobe(SFSON);
1061:bluetooth_rxtx.c **** 	while (!(cc2400_status() & FS_LOCK));
1062:bluetooth_rxtx.c **** 	cc2400_strobe(SRX);
1063:bluetooth_rxtx.c **** #ifdef UBERTOOTH_ONE
1064:bluetooth_rxtx.c **** 	PAEN_SET;
1065:bluetooth_rxtx.c **** 	HGM_SET;
1066:bluetooth_rxtx.c **** #endif
1067:bluetooth_rxtx.c **** }
1068:bluetooth_rxtx.c **** 
1069:bluetooth_rxtx.c **** /* start buffered tx */
1070:bluetooth_rxtx.c **** #ifdef TX_ENABLE
1071:bluetooth_rxtx.c **** static void cc2400_tx_sync(uint32_t sync)
1072:bluetooth_rxtx.c **** {
1073:bluetooth_rxtx.c **** 	// Bluetooth-like modulation
1074:bluetooth_rxtx.c **** 	cc2400_set(MANAND,  0x7fff);
1075:bluetooth_rxtx.c **** 	cc2400_set(LMTST,   0x2b22);    // LNA and receive mixers test register
1076:bluetooth_rxtx.c **** 	cc2400_set(MDMTST0, 0x134b);    // no PRNG
1077:bluetooth_rxtx.c **** 
1078:bluetooth_rxtx.c **** 	cc2400_set(GRMDM,   0x0c01);
1079:bluetooth_rxtx.c **** 	// 0 00 01 1 000 00 0 00 0 1
1080:bluetooth_rxtx.c **** 	//      |  | |   |  +--------> CRC off
1081:bluetooth_rxtx.c **** 	//      |  | |   +-----------> sync word: 8 MSB bits of SYNC_WORD
1082:bluetooth_rxtx.c **** 	//      |  | +---------------> 0 preamble bytes of 01010101
1083:bluetooth_rxtx.c **** 	//      |  +-----------------> packet mode
1084:bluetooth_rxtx.c **** 	//      +--------------------> buffered mode
1085:bluetooth_rxtx.c **** 
1086:bluetooth_rxtx.c **** 	cc2400_set(SYNCL,   sync & 0xffff);
1087:bluetooth_rxtx.c **** 	cc2400_set(SYNCH,   (sync >> 16) & 0xffff);
1088:bluetooth_rxtx.c **** 
1089:bluetooth_rxtx.c **** 	cc2400_set(FSDIV,   channel);
1090:bluetooth_rxtx.c **** 	cc2400_set(FREND,   0b1011);    // amplifier level (-7 dBm, picked from hat)
1091:bluetooth_rxtx.c **** 
1092:bluetooth_rxtx.c **** 	if (modulation == MOD_BT_BASIC_RATE) {
1093:bluetooth_rxtx.c **** 		cc2400_set(MDMCTRL, 0x0029);    // 160 kHz frequency deviation
1094:bluetooth_rxtx.c **** 	} else if (modulation == MOD_BT_LOW_ENERGY) {
1095:bluetooth_rxtx.c **** 		cc2400_set(MDMCTRL, 0x0040);    // 250 kHz frequency deviation
1096:bluetooth_rxtx.c **** 	} else {
1097:bluetooth_rxtx.c **** 		/* oops */
1098:bluetooth_rxtx.c **** 		return;
1099:bluetooth_rxtx.c **** 	}
1100:bluetooth_rxtx.c **** 
1101:bluetooth_rxtx.c **** 	clkn_start();
1102:bluetooth_rxtx.c **** 
1103:bluetooth_rxtx.c **** 	while (!(cc2400_status() & XOSC16M_STABLE));
1104:bluetooth_rxtx.c **** 	cc2400_strobe(SFSON);
1105:bluetooth_rxtx.c **** 	while (!(cc2400_status() & FS_LOCK));
1106:bluetooth_rxtx.c **** 
1107:bluetooth_rxtx.c **** #ifdef UBERTOOTH_ONE
1108:bluetooth_rxtx.c **** 	PAEN_SET;
1109:bluetooth_rxtx.c **** #endif
1110:bluetooth_rxtx.c **** 
1111:bluetooth_rxtx.c **** 	while ((cc2400_get(FSMSTATE) & 0x1f) != STATE_STROBE_FS_ON);
1112:bluetooth_rxtx.c **** 	cc2400_strobe(STX);
1113:bluetooth_rxtx.c **** 
1114:bluetooth_rxtx.c **** }
1115:bluetooth_rxtx.c **** #endif
ARM GAS  /tmp/ccwF1FQu.s 			page 21


1116:bluetooth_rxtx.c **** 
1117:bluetooth_rxtx.c **** /*
1118:bluetooth_rxtx.c ****  * Transmit a BTLE packet with the specified access address.
1119:bluetooth_rxtx.c ****  *
1120:bluetooth_rxtx.c ****  * All modulation parameters are set within this function. The data
1121:bluetooth_rxtx.c ****  * should not be pre-whitened, but the CRC should be calculated and
1122:bluetooth_rxtx.c ****  * included in the data length.
1123:bluetooth_rxtx.c ****  *
1124:bluetooth_rxtx.c ****  */
1125:bluetooth_rxtx.c **** #ifdef TX_ENABLE
1126:bluetooth_rxtx.c **** void le_transmit(u32 aa, u8 len, u8 *data)
1127:bluetooth_rxtx.c **** {
1128:bluetooth_rxtx.c **** 	unsigned int fifo_space, i, j;
1129:bluetooth_rxtx.c **** 	int bit;
1130:bluetooth_rxtx.c **** 	u8 txbuf[LE_ADV_MAX_LEN];
1131:bluetooth_rxtx.c **** 	u8 tx_len;
1132:bluetooth_rxtx.c **** 	u8 byte;
1133:bluetooth_rxtx.c **** 	uint32_t sync = rbit(aa);
1134:bluetooth_rxtx.c **** 	u16 gio_save;
1135:bluetooth_rxtx.c **** 
1136:bluetooth_rxtx.c **** 	// whiten the data and copy it into the txbuf
1137:bluetooth_rxtx.c **** 	int idx = whitening_index[btle_channel_index(channel)];
1138:bluetooth_rxtx.c **** 	for (i = 0; i < len; ++i) {
1139:bluetooth_rxtx.c **** 		byte = data[i];
1140:bluetooth_rxtx.c **** 		txbuf[i] = 0;
1141:bluetooth_rxtx.c **** 		for (j = 0; j < 8; ++j) {
1142:bluetooth_rxtx.c **** 			bit = (byte & 1) ^ whitening[idx];
1143:bluetooth_rxtx.c **** 			idx = (idx + 1) % sizeof(whitening);
1144:bluetooth_rxtx.c **** 			byte >>= 1;
1145:bluetooth_rxtx.c **** 			txbuf[i] |= bit << (7 - j);
1146:bluetooth_rxtx.c **** 		}
1147:bluetooth_rxtx.c **** 	}
1148:bluetooth_rxtx.c **** 
1149:bluetooth_rxtx.c **** 	// Bluetooth-like modulation
1150:bluetooth_rxtx.c **** 	cc2400_set(MANAND,  0x7fff);
1151:bluetooth_rxtx.c **** 	cc2400_set(LMTST,   0x2b22);    // LNA and receive mixers test register
1152:bluetooth_rxtx.c **** 	cc2400_set(MDMTST0, 0x134b);    // no PRNG
1153:bluetooth_rxtx.c **** 
1154:bluetooth_rxtx.c **** 	cc2400_set(GRMDM,   0x0ce1);
1155:bluetooth_rxtx.c **** 	// 0 00 01 1 001 11 0 00 0 1
1156:bluetooth_rxtx.c **** 	//      |  | |   |  +--------> CRC off
1157:bluetooth_rxtx.c **** 	//      |  | |   +-----------> sync word: all 32 bits of SYNC_WORD
1158:bluetooth_rxtx.c **** 	//      |  | +---------------> 1 preamble byte of 01010101
1159:bluetooth_rxtx.c **** 	//      |  +-----------------> packet mode
1160:bluetooth_rxtx.c **** 	//      +--------------------> buffered mode
1161:bluetooth_rxtx.c **** 
1162:bluetooth_rxtx.c **** 	cc2400_set(FSDIV,   channel);
1163:bluetooth_rxtx.c **** 	cc2400_set(FREND,   0b1011);    // amplifier level (-7 dBm, picked from hat)
1164:bluetooth_rxtx.c **** 	cc2400_set(MDMCTRL, 0x0040);    // 250 kHz frequency deviation
1165:bluetooth_rxtx.c **** 	cc2400_set(INT,     0x0010);    // FIFO_THRESHOLD: 16 bytes
1166:bluetooth_rxtx.c **** 
1167:bluetooth_rxtx.c **** 	// set sync word to bit-reversed AA
1168:bluetooth_rxtx.c **** 	cc2400_set(SYNCL,   sync & 0xffff);
1169:bluetooth_rxtx.c **** 	cc2400_set(SYNCH,   (sync >> 16) & 0xffff);
1170:bluetooth_rxtx.c **** 
1171:bluetooth_rxtx.c **** 	// set GIO to FIFO_FULL
1172:bluetooth_rxtx.c **** 	gio_save = cc2400_get(IOCFG);
ARM GAS  /tmp/ccwF1FQu.s 			page 22


1173:bluetooth_rxtx.c **** 	cc2400_set(IOCFG, (GIO_FIFO_EMPTY << 9) | (gio_save & 0x1ff));
1174:bluetooth_rxtx.c **** 
1175:bluetooth_rxtx.c **** 	// turn on the radio
1176:bluetooth_rxtx.c **** 	while (!(cc2400_status() & XOSC16M_STABLE));
1177:bluetooth_rxtx.c **** 	cc2400_strobe(SFSON);
1178:bluetooth_rxtx.c **** 	while (!(cc2400_status() & FS_LOCK));
1179:bluetooth_rxtx.c **** 	TXLED_SET;
1180:bluetooth_rxtx.c **** #ifdef UBERTOOTH_ONE
1181:bluetooth_rxtx.c **** 	PAEN_SET;
1182:bluetooth_rxtx.c **** #endif
1183:bluetooth_rxtx.c **** 	while ((cc2400_get(FSMSTATE) & 0x1f) != STATE_STROBE_FS_ON);
1184:bluetooth_rxtx.c **** 	/*
1185:bluetooth_rxtx.c **** 		This is the correct way of talking to the CC2400 FIFO, the algorithm is as follows:
1186:bluetooth_rxtx.c **** 	 	While i need to send more data:
1187:bluetooth_rxtx.c **** 	 		1. Wait for FIFO to drain according to FIFO_THRESHOLD, (or if first iteration immediately)
1188:bluetooth_rxtx.c **** 	 		2. Fill the FIFO with the correct amount of data to send (fifo_space is an indicator for how mu
1189:bluetooth_rxtx.c **** 	 		3. Signal FIFO to send data
1190:bluetooth_rxtx.c **** 	*/
1191:bluetooth_rxtx.c **** 	fifo_space = 32; // We start at 32, because the C2400 FIFO overall size is 32 bytes.
1192:bluetooth_rxtx.c **** 	i = 0;
1193:bluetooth_rxtx.c **** 	while (len != 0)
1194:bluetooth_rxtx.c **** 	{
1195:bluetooth_rxtx.c **** 		// Wait for the FIFO to drain (when FIFO_FULL is false)	
1196:bluetooth_rxtx.c **** 		while (!GIO6);
1197:bluetooth_rxtx.c **** 		// Decide how much we should send in this iteration
1198:bluetooth_rxtx.c **** 		if (len >= fifo_space) {
1199:bluetooth_rxtx.c **** 			len -= fifo_space;
1200:bluetooth_rxtx.c **** 			tx_len = fifo_space;
1201:bluetooth_rxtx.c **** 		} else {
1202:bluetooth_rxtx.c **** 			tx_len = len;
1203:bluetooth_rxtx.c **** 			len = 0;
1204:bluetooth_rxtx.c **** 		}
1205:bluetooth_rxtx.c **** 		// Signal FIFO to send data
1206:bluetooth_rxtx.c **** 		cc2400_fifo_write(tx_len, txbuf + i);
1207:bluetooth_rxtx.c **** 		cc2400_strobe(STX);
1208:bluetooth_rxtx.c **** 		i += tx_len;
1209:bluetooth_rxtx.c **** 		// From now on, we only get interrupt on GIO6, which means that we work according to FIFO_THRESHO
1210:bluetooth_rxtx.c **** 		fifo_space = 16;
1211:bluetooth_rxtx.c **** 	}
1212:bluetooth_rxtx.c **** 	while ((cc2400_get(FSMSTATE) & 0x1f) != STATE_STROBE_FS_ON);
1213:bluetooth_rxtx.c **** 	TXLED_CLR;
1214:bluetooth_rxtx.c **** 
1215:bluetooth_rxtx.c **** 	cc2400_strobe(SRFOFF);
1216:bluetooth_rxtx.c **** 	while ((cc2400_status() & FS_LOCK));
1217:bluetooth_rxtx.c **** 
1218:bluetooth_rxtx.c **** #ifdef UBERTOOTH_ONE
1219:bluetooth_rxtx.c **** 	PAEN_CLR;
1220:bluetooth_rxtx.c **** #endif
1221:bluetooth_rxtx.c **** 	// Restore GIO
1222:bluetooth_rxtx.c ****  	cc2400_set(IOCFG, gio_save);
1223:bluetooth_rxtx.c **** }
1224:bluetooth_rxtx.c **** #endif
1225:bluetooth_rxtx.c **** 
1226:bluetooth_rxtx.c **** #ifdef TX_ENABLE
1227:bluetooth_rxtx.c **** void le_jam(void) {
1228:bluetooth_rxtx.c **** 	cc2400_set(MANAND,  0x7fff);
1229:bluetooth_rxtx.c **** 	cc2400_set(LMTST,   0x2b22);    // LNA and receive mixers test register
ARM GAS  /tmp/ccwF1FQu.s 			page 23


1230:bluetooth_rxtx.c **** 	cc2400_set(MDMTST0, 0x234b);    // PRNG, 1 MHz offset
1231:bluetooth_rxtx.c **** 
1232:bluetooth_rxtx.c **** 	cc2400_set(GRMDM,   0x0c01);
1233:bluetooth_rxtx.c **** 	// 0 00 01 1 000 00 0 00 0 1
1234:bluetooth_rxtx.c **** 	//      |  | |   |  +--------> CRC off
1235:bluetooth_rxtx.c **** 	//      |  | |   +-----------> sync word: 8 MSB bits of SYNC_WORD
1236:bluetooth_rxtx.c **** 	//      |  | +---------------> 0 preamble bytes of 01010101
1237:bluetooth_rxtx.c **** 	//      |  +-----------------> packet mode
1238:bluetooth_rxtx.c **** 	//      +--------------------> buffered mode
1239:bluetooth_rxtx.c **** 
1240:bluetooth_rxtx.c **** 	// cc2400_set(FSDIV,   channel);
1241:bluetooth_rxtx.c **** 	cc2400_set(FREND,   0b1011);    // amplifier level (-7 dBm, picked from hat)
1242:bluetooth_rxtx.c **** 	cc2400_set(MDMCTRL, 0x0040);    // 250 kHz frequency deviation
1243:bluetooth_rxtx.c **** 
1244:bluetooth_rxtx.c **** 	while (!(cc2400_status() & XOSC16M_STABLE));
1245:bluetooth_rxtx.c **** 	cc2400_strobe(SFSON);
1246:bluetooth_rxtx.c **** 	while (!(cc2400_status() & FS_LOCK));
1247:bluetooth_rxtx.c **** 	TXLED_SET;
1248:bluetooth_rxtx.c **** #ifdef UBERTOOTH_ONE
1249:bluetooth_rxtx.c **** 	PAEN_SET;
1250:bluetooth_rxtx.c **** #endif
1251:bluetooth_rxtx.c **** 	while ((cc2400_get(FSMSTATE) & 0x1f) != STATE_STROBE_FS_ON);
1252:bluetooth_rxtx.c **** 	cc2400_strobe(STX);
1253:bluetooth_rxtx.c **** }
1254:bluetooth_rxtx.c **** #endif
1255:bluetooth_rxtx.c **** 
1256:bluetooth_rxtx.c **** /* TODO - return whether hop happened, or should caller have to keep
1257:bluetooth_rxtx.c ****  * track of this? */
1258:bluetooth_rxtx.c **** void hop(void)
1259:bluetooth_rxtx.c **** {
1260:bluetooth_rxtx.c **** 	do_hop = 0;
1261:bluetooth_rxtx.c **** 	last_hop = clkn;
1262:bluetooth_rxtx.c **** 
1263:bluetooth_rxtx.c **** 	// No hopping, if channel is set correctly, do nothing
1264:bluetooth_rxtx.c **** 	if (hop_mode == HOP_NONE) {
1265:bluetooth_rxtx.c **** 		if (cc2400_get(FSDIV) == (channel - 1))
1266:bluetooth_rxtx.c **** 			return;
1267:bluetooth_rxtx.c **** 	}
1268:bluetooth_rxtx.c **** 	/* Slow sweep (100 hops/sec)
1269:bluetooth_rxtx.c **** 	 * only hop to currently used channels if AFH is enabled
1270:bluetooth_rxtx.c **** 	 */
1271:bluetooth_rxtx.c **** 	else if (hop_mode == HOP_SWEEP) {
1272:bluetooth_rxtx.c **** 		do {
1273:bluetooth_rxtx.c **** 			channel += 32;
1274:bluetooth_rxtx.c **** 			if (channel > 2480)
1275:bluetooth_rxtx.c **** 				channel -= 79;
1276:bluetooth_rxtx.c **** 		} while ( used_channels != 0 && afh_enabled && !( afh_map[(channel-2402)/8] & 0x1<<((channel-2402
1277:bluetooth_rxtx.c **** 	}
1278:bluetooth_rxtx.c **** 
1279:bluetooth_rxtx.c **** 	/* AFH detection
1280:bluetooth_rxtx.c **** 	 * only hop to currently unused channesl
1281:bluetooth_rxtx.c **** 	 */
1282:bluetooth_rxtx.c **** 	else if (hop_mode == HOP_AFH) {
1283:bluetooth_rxtx.c **** 		do {
1284:bluetooth_rxtx.c **** 			channel += 32;
1285:bluetooth_rxtx.c **** 			if (channel > 2480)
1286:bluetooth_rxtx.c **** 				channel -= 79;
ARM GAS  /tmp/ccwF1FQu.s 			page 24


1287:bluetooth_rxtx.c **** 		} while( used_channels != 79 && (afh_map[(channel-2402)/8] & 0x1<<((channel-2402)%8)) );
1288:bluetooth_rxtx.c **** 	}
1289:bluetooth_rxtx.c **** 
1290:bluetooth_rxtx.c **** 	else if (hop_mode == HOP_BLUETOOTH) {
1291:bluetooth_rxtx.c **** 		channel = next_hop(clkn);
1292:bluetooth_rxtx.c **** 	}
1293:bluetooth_rxtx.c **** 
1294:bluetooth_rxtx.c **** 	else if (hop_mode == HOP_BTLE) {
1295:bluetooth_rxtx.c **** 		channel = btle_next_hop(&le);
1296:bluetooth_rxtx.c **** 	}
1297:bluetooth_rxtx.c **** 
1298:bluetooth_rxtx.c **** 	else if (hop_mode == HOP_DIRECT) {
1299:bluetooth_rxtx.c **** 		channel = hop_direct_channel;
1300:bluetooth_rxtx.c **** 	}
1301:bluetooth_rxtx.c **** 	/* IDLE mode, but leave amp on, so don't call cc2400_idle(). */
1302:bluetooth_rxtx.c **** 	cc2400_strobe(SRFOFF);
1303:bluetooth_rxtx.c **** 	while ((cc2400_status() & FS_LOCK)); // need to wait for unlock?
1304:bluetooth_rxtx.c **** 
1305:bluetooth_rxtx.c **** 	/* Retune */
1306:bluetooth_rxtx.c **** 	if(mode == MODE_TX_SYMBOLS)
1307:bluetooth_rxtx.c **** 		cc2400_set(FSDIV, channel);
1308:bluetooth_rxtx.c **** 	else
1309:bluetooth_rxtx.c **** 		cc2400_set(FSDIV, channel - 1);
1310:bluetooth_rxtx.c **** 
1311:bluetooth_rxtx.c **** 	/* Update CS register if hopping.  */
1312:bluetooth_rxtx.c **** 	if (hop_mode > 0) {
1313:bluetooth_rxtx.c **** 		cs_threshold_calc_and_set(channel);
1314:bluetooth_rxtx.c **** 	}
1315:bluetooth_rxtx.c **** 
1316:bluetooth_rxtx.c **** 	/* Wait for lock */
1317:bluetooth_rxtx.c **** 	cc2400_strobe(SFSON);
1318:bluetooth_rxtx.c **** 	while (!(cc2400_status() & FS_LOCK));
1319:bluetooth_rxtx.c **** 
1320:bluetooth_rxtx.c **** 	dma_discard = 1;
1321:bluetooth_rxtx.c **** 
1322:bluetooth_rxtx.c **** 	if(mode == MODE_TX_SYMBOLS) {
1323:bluetooth_rxtx.c **** #ifdef TX_ENABLE
1324:bluetooth_rxtx.c **** 		cc2400_strobe(STX);
1325:bluetooth_rxtx.c **** #endif
1326:bluetooth_rxtx.c **** 	} else {
1327:bluetooth_rxtx.c **** 		cc2400_strobe(SRX);
1328:bluetooth_rxtx.c **** 	}
1329:bluetooth_rxtx.c **** }
1330:bluetooth_rxtx.c **** 
1331:bluetooth_rxtx.c **** /* Bluetooth packet monitoring */
1332:bluetooth_rxtx.c **** void bt_stream_rx()
1333:bluetooth_rxtx.c **** {
1334:bluetooth_rxtx.c **** 	int8_t rssi;
1335:bluetooth_rxtx.c **** 	int8_t rssi_at_trigger;
1336:bluetooth_rxtx.c **** 
1337:bluetooth_rxtx.c **** 	RXLED_CLR;
1338:bluetooth_rxtx.c **** 
1339:bluetooth_rxtx.c **** 	usb_queue_init();
1340:bluetooth_rxtx.c **** 	dio_ssp_init();
1341:bluetooth_rxtx.c **** 	dma_init_rx_symbols();
1342:bluetooth_rxtx.c **** 	dio_ssp_start();
1343:bluetooth_rxtx.c **** 
ARM GAS  /tmp/ccwF1FQu.s 			page 25


1344:bluetooth_rxtx.c **** 	cc2400_rx();
1345:bluetooth_rxtx.c **** 
1346:bluetooth_rxtx.c **** 	cs_trigger_enable();
1347:bluetooth_rxtx.c **** 
1348:bluetooth_rxtx.c **** 	while ( requested_mode == MODE_RX_SYMBOLS || requested_mode == MODE_BT_FOLLOW )
1349:bluetooth_rxtx.c **** 	{
1350:bluetooth_rxtx.c **** 
1351:bluetooth_rxtx.c **** 		RXLED_CLR;
1352:bluetooth_rxtx.c **** 
1353:bluetooth_rxtx.c **** 		/* Wait for DMA transfer. TODO - need more work on
1354:bluetooth_rxtx.c **** 		 * RSSI. Should send RSSI indications to host even
1355:bluetooth_rxtx.c **** 		 * when not transferring data. That would also keep
1356:bluetooth_rxtx.c **** 		 * the USB stream going. This loop runs 50-80 times
1357:bluetooth_rxtx.c **** 		 * while waiting for DMA, but RSSI sampling does not
1358:bluetooth_rxtx.c **** 		 * cover all the symbols in a DMA transfer. Can not do
1359:bluetooth_rxtx.c **** 		 * RSSI sampling in CS interrupt, but could log time
1360:bluetooth_rxtx.c **** 		 * at multiple trigger points there. The MAX() below
1361:bluetooth_rxtx.c **** 		 * helps with statistics in the case that cs_trigger
1362:bluetooth_rxtx.c **** 		 * happened before the loop started. */
1363:bluetooth_rxtx.c **** 		rssi_reset();
1364:bluetooth_rxtx.c **** 		rssi_at_trigger = INT8_MIN;
1365:bluetooth_rxtx.c **** 		while (!rx_tc) {
1366:bluetooth_rxtx.c **** 			rssi = (int8_t)(cc2400_get(RSSI) >> 8);
1367:bluetooth_rxtx.c **** 			if (cs_trigger && (rssi_at_trigger == INT8_MIN)) {
1368:bluetooth_rxtx.c **** 				rssi = MAX(rssi,(cs_threshold_cur+54));
1369:bluetooth_rxtx.c **** 				rssi_at_trigger = rssi;
1370:bluetooth_rxtx.c **** 			}
1371:bluetooth_rxtx.c **** 			rssi_add(rssi);
1372:bluetooth_rxtx.c **** 
1373:bluetooth_rxtx.c **** 			handle_usb(clkn);
1374:bluetooth_rxtx.c **** 
1375:bluetooth_rxtx.c **** 			/* If timer says time to hop, do it. */
1376:bluetooth_rxtx.c **** 			if (do_hop) {
1377:bluetooth_rxtx.c **** 				hop();
1378:bluetooth_rxtx.c **** 			} else {
1379:bluetooth_rxtx.c **** 				TXLED_CLR;
1380:bluetooth_rxtx.c **** 			}
1381:bluetooth_rxtx.c **** 			/* TODO - set per-channel carrier sense threshold.
1382:bluetooth_rxtx.c **** 			 * Set by firmware or host. */
1383:bluetooth_rxtx.c **** 		}
1384:bluetooth_rxtx.c **** 
1385:bluetooth_rxtx.c **** 		RXLED_SET;
1386:bluetooth_rxtx.c **** 
1387:bluetooth_rxtx.c **** 		if (rx_err) {
1388:bluetooth_rxtx.c **** 			status |= DMA_ERROR;
1389:bluetooth_rxtx.c **** 		}
1390:bluetooth_rxtx.c **** 
1391:bluetooth_rxtx.c **** 		/* Missed a DMA trasfer? */
1392:bluetooth_rxtx.c **** 		if (rx_tc > 1)
1393:bluetooth_rxtx.c **** 			status |= DMA_OVERFLOW;
1394:bluetooth_rxtx.c **** 
1395:bluetooth_rxtx.c **** 		if (dma_discard) {
1396:bluetooth_rxtx.c **** 			status |= DISCARD;
1397:bluetooth_rxtx.c **** 			dma_discard = 0;
1398:bluetooth_rxtx.c **** 		}
1399:bluetooth_rxtx.c **** 
1400:bluetooth_rxtx.c **** 		rssi_iir_update(channel);
ARM GAS  /tmp/ccwF1FQu.s 			page 26


1401:bluetooth_rxtx.c **** 
1402:bluetooth_rxtx.c **** 		/* Set squelch hold if there was either a CS trigger, squelch
1403:bluetooth_rxtx.c **** 		 * is disabled, or if the current rssi_max is above the same
1404:bluetooth_rxtx.c **** 		 * threshold. Currently, this is redundant, but allows for
1405:bluetooth_rxtx.c **** 		 * per-channel or other rssi triggers in the future. */
1406:bluetooth_rxtx.c **** 		if (cs_trigger || cs_no_squelch) {
1407:bluetooth_rxtx.c **** 			status |= CS_TRIGGER;
1408:bluetooth_rxtx.c **** 			cs_trigger = 0;
1409:bluetooth_rxtx.c **** 		}
1410:bluetooth_rxtx.c **** 
1411:bluetooth_rxtx.c **** 		if (rssi_max >= (cs_threshold_cur + 54)) {
1412:bluetooth_rxtx.c **** 			status |= RSSI_TRIGGER;
1413:bluetooth_rxtx.c **** 		}
1414:bluetooth_rxtx.c **** 
1415:bluetooth_rxtx.c **** 		enqueue(BR_PACKET, (uint8_t*)idle_rxbuf);
1416:bluetooth_rxtx.c **** 
1417:bluetooth_rxtx.c **** 		handle_usb(clkn);
1418:bluetooth_rxtx.c **** 		rx_tc = 0;
1419:bluetooth_rxtx.c **** 		rx_err = 0;
1420:bluetooth_rxtx.c **** 	}
1421:bluetooth_rxtx.c **** 
1422:bluetooth_rxtx.c **** 	dio_ssp_stop();
1423:bluetooth_rxtx.c **** 	cs_trigger_disable();
1424:bluetooth_rxtx.c **** }
1425:bluetooth_rxtx.c **** 
1426:bluetooth_rxtx.c **** static uint8_t reverse8(uint8_t data)
1427:bluetooth_rxtx.c **** {
  27              		.loc 1 1427 1 view -0
  28              		.cfi_startproc
  29              		@ args = 0, pretend = 0, frame = 0
  30              		@ frame_needed = 0, uses_anonymous_args = 0
  31              		.loc 1 1427 1 is_stmt 0 view .LVU1
  32 0000 10B5     		push	{r4, lr}
  33              		.cfi_def_cfa_offset 8
  34              		.cfi_offset 4, -8
  35              		.cfi_offset 14, -4
1428:bluetooth_rxtx.c **** 	uint8_t reversed = 0;
  36              		.loc 1 1428 2 is_stmt 1 view .LVU2
  37              	.LVL1:
1429:bluetooth_rxtx.c **** 
1430:bluetooth_rxtx.c **** 	for(size_t i=0; i<8; i++)
  38              		.loc 1 1430 2 view .LVU3
  39              	.LBB7:
  40              		.loc 1 1430 6 view .LVU4
  41              		.loc 1 1430 18 view .LVU5
  42              		.loc 1 1430 13 is_stmt 0 view .LVU6
  43 0002 0023     		movs	r3, #0
  44              	.LBE7:
1427:bluetooth_rxtx.c **** 	uint8_t reversed = 0;
  45              		.loc 1 1427 1 view .LVU7
  46 0004 0146     		mov	r1, r0
1428:bluetooth_rxtx.c **** 	uint8_t reversed = 0;
  47              		.loc 1 1428 10 view .LVU8
  48 0006 1846     		mov	r0, r3
  49              	.LVL2:
  50              	.L2:
  51              	.LBB8:
ARM GAS  /tmp/ccwF1FQu.s 			page 27


1431:bluetooth_rxtx.c **** 	{
1432:bluetooth_rxtx.c **** 		reversed |= ((data >> i) & 0x01) << (7-i);
  52              		.loc 1 1432 3 is_stmt 1 discriminator 3 view .LVU9
  53              		.loc 1 1432 22 is_stmt 0 discriminator 3 view .LVU10
  54 0008 41FA03F2 		asr	r2, r1, r3
  55              		.loc 1 1432 36 discriminator 3 view .LVU11
  56 000c C3F10704 		rsb	r4, r3, #7
  57              		.loc 1 1432 28 discriminator 3 view .LVU12
  58 0010 02F00102 		and	r2, r2, #1
  59              		.loc 1 1432 36 discriminator 3 view .LVU13
  60 0014 A240     		lsls	r2, r2, r4
1430:bluetooth_rxtx.c **** 	{
  61              		.loc 1 1430 24 discriminator 3 view .LVU14
  62 0016 0133     		adds	r3, r3, #1
  63              	.LVL3:
  64              		.loc 1 1432 12 discriminator 3 view .LVU15
  65 0018 0243     		orrs	r2, r2, r0
1430:bluetooth_rxtx.c **** 	{
  66              		.loc 1 1430 2 discriminator 3 view .LVU16
  67 001a 082B     		cmp	r3, #8
  68              		.loc 1 1432 12 discriminator 3 view .LVU17
  69 001c D0B2     		uxtb	r0, r2
  70              	.LVL4:
1430:bluetooth_rxtx.c **** 	{
  71              		.loc 1 1430 23 is_stmt 1 discriminator 3 view .LVU18
1430:bluetooth_rxtx.c **** 	{
  72              		.loc 1 1430 18 discriminator 3 view .LVU19
1430:bluetooth_rxtx.c **** 	{
  73              		.loc 1 1430 2 is_stmt 0 discriminator 3 view .LVU20
  74 001e F3D1     		bne	.L2
  75              	.LBE8:
1433:bluetooth_rxtx.c **** 	}
1434:bluetooth_rxtx.c **** 
1435:bluetooth_rxtx.c **** 	return reversed;
1436:bluetooth_rxtx.c **** }
  76              		.loc 1 1436 1 view .LVU21
  77 0020 10BD     		pop	{r4, pc}
  78              		.cfi_endproc
  79              	.LFE16:
  81              		.section	.text.le_set_access_address,"ax",%progbits
  82              		.align	1
  83              		.syntax unified
  84              		.thumb
  85              		.thumb_func
  86              		.fpu softvfp
  88              	le_set_access_address:
  89              	.LVL5:
  90              	.LFB19:
1437:bluetooth_rxtx.c **** 
1438:bluetooth_rxtx.c **** static uint16_t reverse16(uint16_t data)
1439:bluetooth_rxtx.c **** {
1440:bluetooth_rxtx.c **** 	uint16_t reversed = 0;
1441:bluetooth_rxtx.c **** 
1442:bluetooth_rxtx.c **** 	for(size_t i=0; i<16; i++)
1443:bluetooth_rxtx.c **** 	{
1444:bluetooth_rxtx.c **** 		reversed |= ((data >> i) & 0x01) << (15-i);
1445:bluetooth_rxtx.c **** 	}
ARM GAS  /tmp/ccwF1FQu.s 			page 28


1446:bluetooth_rxtx.c **** 
1447:bluetooth_rxtx.c **** 	return reversed;
1448:bluetooth_rxtx.c **** }
1449:bluetooth_rxtx.c **** 
1450:bluetooth_rxtx.c **** /*
1451:bluetooth_rxtx.c ****  * Transmit a BTBR packet with the specified access code.
1452:bluetooth_rxtx.c ****  *
1453:bluetooth_rxtx.c ****  * All modulation parameters are set within this function.
1454:bluetooth_rxtx.c ****  */
1455:bluetooth_rxtx.c **** #ifdef TX_ENABLE
1456:bluetooth_rxtx.c **** void br_transmit()
1457:bluetooth_rxtx.c **** {
1458:bluetooth_rxtx.c **** 	uint16_t gio_save;
1459:bluetooth_rxtx.c **** 
1460:bluetooth_rxtx.c **** 	uint32_t clkn_saved = 0;
1461:bluetooth_rxtx.c **** 
1462:bluetooth_rxtx.c **** 	uint16_t preamble = (target.syncword & 1) == 1 ? 0x5555 : 0xaaaa;
1463:bluetooth_rxtx.c **** 	uint8_t trailer = ((target.syncword >> 63) & 1) == 1 ? 0xaa : 0x55;
1464:bluetooth_rxtx.c **** 
1465:bluetooth_rxtx.c **** 	uint8_t data[16] = {
1466:bluetooth_rxtx.c **** 		reverse8((target.syncword >> 0) & 0xFF),
1467:bluetooth_rxtx.c **** 		reverse8((target.syncword >> 8) & 0xFF),
1468:bluetooth_rxtx.c **** 		reverse8((target.syncword >> 16) & 0xFF),
1469:bluetooth_rxtx.c **** 		reverse8((target.syncword >> 24) & 0xFF),
1470:bluetooth_rxtx.c **** 		reverse8((target.syncword >> 32) & 0xFF),
1471:bluetooth_rxtx.c **** 		reverse8((target.syncword >> 40) & 0xFF),
1472:bluetooth_rxtx.c **** 		reverse8((target.syncword >> 48) & 0xFF),
1473:bluetooth_rxtx.c **** 		reverse8((target.syncword >> 56) & 0xFF),
1474:bluetooth_rxtx.c **** 		reverse8(trailer),
1475:bluetooth_rxtx.c **** 		reverse8(0x77),
1476:bluetooth_rxtx.c **** 		reverse8(0x66),
1477:bluetooth_rxtx.c **** 		reverse8(0x55),
1478:bluetooth_rxtx.c **** 		reverse8(0x44),
1479:bluetooth_rxtx.c **** 		reverse8(0x33),
1480:bluetooth_rxtx.c **** 		reverse8(0x22),
1481:bluetooth_rxtx.c **** 		reverse8(0x11)
1482:bluetooth_rxtx.c **** 	};
1483:bluetooth_rxtx.c **** 
1484:bluetooth_rxtx.c **** 	cc2400_tx_sync(reverse16(preamble));
1485:bluetooth_rxtx.c **** 
1486:bluetooth_rxtx.c **** 	cc2400_set(INT,     0x0014);    // FIFO_THRESHOLD: 20 bytes
1487:bluetooth_rxtx.c **** 
1488:bluetooth_rxtx.c **** 	// set GIO to FIFO_FULL
1489:bluetooth_rxtx.c **** 	gio_save = cc2400_get(IOCFG);
1490:bluetooth_rxtx.c **** 	cc2400_set(IOCFG, (GIO_FIFO_FULL << 9) | (gio_save & 0x1ff));
1491:bluetooth_rxtx.c **** 
1492:bluetooth_rxtx.c **** 	while ( requested_mode == MODE_TX_SYMBOLS )
1493:bluetooth_rxtx.c **** 	{
1494:bluetooth_rxtx.c **** 
1495:bluetooth_rxtx.c **** 		while ((clkn >> 1) == (clkn_saved >> 1) || T0TC < 2250) {
1496:bluetooth_rxtx.c **** 
1497:bluetooth_rxtx.c **** 			// If timer says time to hop, do it.
1498:bluetooth_rxtx.c **** 			if (do_hop) {
1499:bluetooth_rxtx.c **** 				hop();
1500:bluetooth_rxtx.c **** 			}
1501:bluetooth_rxtx.c **** 		}
1502:bluetooth_rxtx.c **** 
ARM GAS  /tmp/ccwF1FQu.s 			page 29


1503:bluetooth_rxtx.c **** 		clkn_saved = clkn;
1504:bluetooth_rxtx.c **** 
1505:bluetooth_rxtx.c **** 		TXLED_SET;
1506:bluetooth_rxtx.c **** 
1507:bluetooth_rxtx.c **** 		cc2400_fifo_write(16, data);
1508:bluetooth_rxtx.c **** 
1509:bluetooth_rxtx.c **** 		while ((cc2400_get(FSMSTATE) & 0x1f) != STATE_STROBE_FS_ON);
1510:bluetooth_rxtx.c **** 		TXLED_CLR;
1511:bluetooth_rxtx.c **** 
1512:bluetooth_rxtx.c **** 		cc2400_strobe(SRFOFF);
1513:bluetooth_rxtx.c **** 		while ((cc2400_status() & FS_LOCK));
1514:bluetooth_rxtx.c **** 
1515:bluetooth_rxtx.c **** 		while (!(cc2400_status() & XOSC16M_STABLE));
1516:bluetooth_rxtx.c **** 		cc2400_strobe(SFSON);
1517:bluetooth_rxtx.c **** 		while (!(cc2400_status() & FS_LOCK));
1518:bluetooth_rxtx.c **** 
1519:bluetooth_rxtx.c **** 		while ((cc2400_get(FSMSTATE) & 0x1f) != STATE_STROBE_FS_ON);
1520:bluetooth_rxtx.c **** 		cc2400_strobe(STX);
1521:bluetooth_rxtx.c **** 
1522:bluetooth_rxtx.c **** 		handle_usb(clkn);
1523:bluetooth_rxtx.c **** 	}
1524:bluetooth_rxtx.c **** 
1525:bluetooth_rxtx.c **** #ifdef UBERTOOTH_ONE
1526:bluetooth_rxtx.c **** 	PAEN_CLR;
1527:bluetooth_rxtx.c **** #endif
1528:bluetooth_rxtx.c **** 
1529:bluetooth_rxtx.c **** 	// reset GIO
1530:bluetooth_rxtx.c **** 	cc2400_set(IOCFG, gio_save);
1531:bluetooth_rxtx.c **** }
1532:bluetooth_rxtx.c **** #endif
1533:bluetooth_rxtx.c **** 
1534:bluetooth_rxtx.c **** /* set LE access address */
1535:bluetooth_rxtx.c **** static void le_set_access_address(u32 aa) {
  91              		.loc 1 1535 43 is_stmt 1 view -0
  92              		.cfi_startproc
  93              		@ args = 0, pretend = 0, frame = 0
  94              		@ frame_needed = 0, uses_anonymous_args = 0
  95              		.loc 1 1535 43 is_stmt 0 view .LVU23
  96 0000 10B5     		push	{r4, lr}
  97              		.cfi_def_cfa_offset 8
  98              		.cfi_offset 4, -8
  99              		.cfi_offset 14, -4
1536:bluetooth_rxtx.c **** 	u32 aa_rev;
 100              		.loc 1 1536 2 is_stmt 1 view .LVU24
1537:bluetooth_rxtx.c **** 
1538:bluetooth_rxtx.c **** 	le.access_address = aa;
 101              		.loc 1 1538 2 view .LVU25
 102              		.loc 1 1538 20 is_stmt 0 view .LVU26
 103 0002 044C     		ldr	r4, .L5
 104 0004 2060     		str	r0, [r4]
1539:bluetooth_rxtx.c **** 	aa_rev = rbit(aa);
 105              		.loc 1 1539 2 is_stmt 1 view .LVU27
 106              		.loc 1 1539 11 is_stmt 0 view .LVU28
 107 0006 FFF7FEFF 		bl	rbit
 108              	.LVL6:
1540:bluetooth_rxtx.c **** 	le.syncl = aa_rev & 0xffff;
 109              		.loc 1 1540 2 is_stmt 1 view .LVU29
ARM GAS  /tmp/ccwF1FQu.s 			page 30


 110              		.loc 1 1540 11 is_stmt 0 view .LVU30
 111 000a E080     		strh	r0, [r4, #6]	@ movhi
1541:bluetooth_rxtx.c **** 	le.synch = aa_rev >> 16;
 112              		.loc 1 1541 2 is_stmt 1 view .LVU31
 113              		.loc 1 1541 20 is_stmt 0 view .LVU32
 114 000c 000C     		lsrs	r0, r0, #16
 115              	.LVL7:
 116              		.loc 1 1541 11 view .LVU33
 117 000e A080     		strh	r0, [r4, #4]	@ movhi
1542:bluetooth_rxtx.c **** }
 118              		.loc 1 1542 1 view .LVU34
 119 0010 10BD     		pop	{r4, pc}
 120              	.L6:
 121 0012 00BF     		.align	2
 122              	.L5:
 123 0014 00000000 		.word	.LANCHOR0
 124              		.cfi_endproc
 125              	.LFE19:
 127              		.section	.text.cc2400_rx,"ax",%progbits
 128              		.align	1
 129              		.syntax unified
 130              		.thumb
 131              		.thumb_func
 132              		.fpu softvfp
 134              	cc2400_rx:
 135              	.LFB9:
 960:bluetooth_rxtx.c **** 	u16 mdmctrl = 0;
 136              		.loc 1 960 1 is_stmt 1 view -0
 137              		.cfi_startproc
 138              		@ args = 0, pretend = 0, frame = 0
 139              		@ frame_needed = 0, uses_anonymous_args = 0
 140 0000 38B5     		push	{r3, r4, r5, lr}
 141              		.cfi_def_cfa_offset 16
 142              		.cfi_offset 3, -16
 143              		.cfi_offset 4, -12
 144              		.cfi_offset 5, -8
 145              		.cfi_offset 14, -4
 961:bluetooth_rxtx.c **** 
 146              		.loc 1 961 2 view .LVU36
 147              	.LVL8:
 963:bluetooth_rxtx.c **** 		if (modulation == MOD_BT_BASIC_RATE) {
 148              		.loc 1 963 2 view .LVU37
 963:bluetooth_rxtx.c **** 		if (modulation == MOD_BT_BASIC_RATE) {
 149              		.loc 1 963 17 is_stmt 0 view .LVU38
 150 0002 264B     		ldr	r3, .L22
 151 0004 264C     		ldr	r4, .L22+4
 152 0006 1A78     		ldrb	r2, [r3]	@ zero_extendqisi2
 963:bluetooth_rxtx.c **** 		if (modulation == MOD_BT_BASIC_RATE) {
 153              		.loc 1 963 4 view .LVU39
 154 0008 12B1     		cbz	r2, .L8
 963:bluetooth_rxtx.c **** 		if (modulation == MOD_BT_BASIC_RATE) {
 155              		.loc 1 963 54 discriminator 1 view .LVU40
 156 000a 1A78     		ldrb	r2, [r3]	@ zero_extendqisi2
 963:bluetooth_rxtx.c **** 		if (modulation == MOD_BT_BASIC_RATE) {
 157              		.loc 1 963 39 discriminator 1 view .LVU41
 158 000c 012A     		cmp	r2, #1
 159 000e 26D1     		bne	.L9
ARM GAS  /tmp/ccwF1FQu.s 			page 31


 160              	.L8:
 964:bluetooth_rxtx.c **** 			mdmctrl = 0x0029; // 160 kHz frequency deviation
 161              		.loc 1 964 3 is_stmt 1 view .LVU42
 964:bluetooth_rxtx.c **** 			mdmctrl = 0x0029; // 160 kHz frequency deviation
 162              		.loc 1 964 18 is_stmt 0 view .LVU43
 163 0010 1A78     		ldrb	r2, [r3]	@ zero_extendqisi2
 964:bluetooth_rxtx.c **** 			mdmctrl = 0x0029; // 160 kHz frequency deviation
 164              		.loc 1 964 6 view .LVU44
 165 0012 002A     		cmp	r2, #0
 166 0014 3FD0     		beq	.L13
 966:bluetooth_rxtx.c **** 			mdmctrl = 0x0040; // 250 kHz frequency deviation
 167              		.loc 1 966 10 is_stmt 1 view .LVU45
 966:bluetooth_rxtx.c **** 			mdmctrl = 0x0040; // 250 kHz frequency deviation
 168              		.loc 1 966 25 is_stmt 0 view .LVU46
 169 0016 1B78     		ldrb	r3, [r3]	@ zero_extendqisi2
 967:bluetooth_rxtx.c **** 		}
 170              		.loc 1 967 12 view .LVU47
 171 0018 012B     		cmp	r3, #1
 172 001a 14BF     		ite	ne
 173 001c 0025     		movne	r5, #0
 174 001e 4025     		moveq	r5, #64
 175              	.L10:
 176              	.LVL9:
 969:bluetooth_rxtx.c **** 		cc2400_set(LMTST,   0x2b22);
 177              		.loc 1 969 3 is_stmt 1 view .LVU48
 178 0020 47F6FF71 		movw	r1, #32767
 179 0024 0D20     		movs	r0, #13
 180 0026 FFF7FEFF 		bl	cc2400_set
 181              	.LVL10:
 970:bluetooth_rxtx.c **** 		cc2400_set(MDMTST0, 0x134b); // without PRNG
 182              		.loc 1 970 3 view .LVU49
 183 002a 42F62231 		movw	r1, #11042
 184 002e 1220     		movs	r0, #18
 185 0030 FFF7FEFF 		bl	cc2400_set
 186              	.LVL11:
 971:bluetooth_rxtx.c **** 		cc2400_set(GRMDM,   0x0101); // un-buffered mode, GFSK
 187              		.loc 1 971 3 view .LVU50
 188 0034 41F24B31 		movw	r1, #4939
 189 0038 1420     		movs	r0, #20
 190 003a FFF7FEFF 		bl	cc2400_set
 191              	.LVL12:
 972:bluetooth_rxtx.c **** 		// 0 00 00 0 010 00 0 00 0 1
 192              		.loc 1 972 3 view .LVU51
 193 003e 40F20111 		movw	r1, #257
 194 0042 2020     		movs	r0, #32
 195 0044 FFF7FEFF 		bl	cc2400_set
 196              	.LVL13:
 979:bluetooth_rxtx.c **** 		cc2400_set(MDMCTRL, mdmctrl);
 197              		.loc 1 979 3 view .LVU52
 198 0048 B4F84C10 		ldrh	r1, [r4, #76]
 199 004c 0220     		movs	r0, #2
 200 004e 0139     		subs	r1, r1, #1
 201 0050 89B2     		uxth	r1, r1
 202 0052 FFF7FEFF 		bl	cc2400_set
 203              	.LVL14:
 980:bluetooth_rxtx.c **** 	}
 204              		.loc 1 980 3 view .LVU53
ARM GAS  /tmp/ccwF1FQu.s 			page 32


 205 0056 2946     		mov	r1, r5
 206 0058 0320     		movs	r0, #3
 207 005a FFF7FEFF 		bl	cc2400_set
 208              	.LVL15:
 209              	.L9:
 984:bluetooth_rxtx.c **** 
 210              		.loc 1 984 2 view .LVU54
 211 005e B4F84C00 		ldrh	r0, [r4, #76]
 212 0062 80B2     		uxth	r0, r0
 213 0064 FFF7FEFF 		bl	cs_threshold_calc_and_set
 214              	.LVL16:
 986:bluetooth_rxtx.c **** 
 215              		.loc 1 986 2 view .LVU55
 216 0068 FFF7FEFF 		bl	clkn_start
 217              	.LVL17:
 988:bluetooth_rxtx.c **** 	cc2400_strobe(SFSON);
 218              		.loc 1 988 2 view .LVU56
 219              	.L11:
 988:bluetooth_rxtx.c **** 	cc2400_strobe(SFSON);
 220              		.loc 1 988 45 discriminator 1 view .LVU57
 988:bluetooth_rxtx.c **** 	cc2400_strobe(SFSON);
 221              		.loc 1 988 8 discriminator 1 view .LVU58
 988:bluetooth_rxtx.c **** 	cc2400_strobe(SFSON);
 222              		.loc 1 988 11 is_stmt 0 discriminator 1 view .LVU59
 223 006c FFF7FEFF 		bl	cc2400_status
 224              	.LVL18:
 988:bluetooth_rxtx.c **** 	cc2400_strobe(SFSON);
 225              		.loc 1 988 8 discriminator 1 view .LVU60
 226 0070 4206     		lsls	r2, r0, #25
 227 0072 FBD5     		bpl	.L11
 989:bluetooth_rxtx.c **** 	while (!(cc2400_status() & FS_LOCK));
 228              		.loc 1 989 2 is_stmt 1 view .LVU61
 229 0074 6120     		movs	r0, #97
 230 0076 FFF7FEFF 		bl	cc2400_strobe
 231              	.LVL19:
 990:bluetooth_rxtx.c **** 	cc2400_strobe(SRX);
 232              		.loc 1 990 2 view .LVU62
 233              	.L12:
 990:bluetooth_rxtx.c **** 	cc2400_strobe(SRX);
 234              		.loc 1 990 38 discriminator 1 view .LVU63
 990:bluetooth_rxtx.c **** 	cc2400_strobe(SRX);
 235              		.loc 1 990 8 discriminator 1 view .LVU64
 990:bluetooth_rxtx.c **** 	cc2400_strobe(SRX);
 236              		.loc 1 990 11 is_stmt 0 discriminator 1 view .LVU65
 237 007a FFF7FEFF 		bl	cc2400_status
 238              	.LVL20:
 990:bluetooth_rxtx.c **** 	cc2400_strobe(SRX);
 239              		.loc 1 990 8 discriminator 1 view .LVU66
 240 007e 4307     		lsls	r3, r0, #29
 241 0080 FBD5     		bpl	.L12
 991:bluetooth_rxtx.c **** #ifdef UBERTOOTH_ONE
 242              		.loc 1 991 2 is_stmt 1 view .LVU67
 243 0082 6220     		movs	r0, #98
 244 0084 FFF7FEFF 		bl	cc2400_strobe
 245              	.LVL21:
 993:bluetooth_rxtx.c **** 	HGM_SET;
 246              		.loc 1 993 2 view .LVU68
ARM GAS  /tmp/ccwF1FQu.s 			page 33


 247 0088 8022     		movs	r2, #128
 248 008a 064B     		ldr	r3, .L22+8
 249 008c 1A60     		str	r2, [r3]
 994:bluetooth_rxtx.c **** #endif
 250              		.loc 1 994 2 view .LVU69
 251 008e 4FF48072 		mov	r2, #256
 252 0092 1A60     		str	r2, [r3]
 996:bluetooth_rxtx.c **** 
 253              		.loc 1 996 1 is_stmt 0 view .LVU70
 254 0094 38BD     		pop	{r3, r4, r5, pc}
 255              	.LVL22:
 256              	.L13:
 965:bluetooth_rxtx.c **** 		} else if (modulation == MOD_BT_LOW_ENERGY) {
 257              		.loc 1 965 12 view .LVU71
 258 0096 2925     		movs	r5, #41
 259 0098 C2E7     		b	.L10
 260              	.L23:
 261 009a 00BF     		.align	2
 262              	.L22:
 263 009c 00000000 		.word	.LANCHOR1
 264 00a0 00000000 		.word	.LANCHOR0
 265 00a4 58C00920 		.word	537509976
 266              		.cfi_endproc
 267              	.LFE9:
 269              		.section	.text.cc2400_rx_sync,"ax",%progbits
 270              		.align	1
 271              		.syntax unified
 272              		.thumb
 273              		.thumb_func
 274              		.fpu softvfp
 276              	cc2400_rx_sync:
 277              	.LVL23:
 278              	.LFB10:
1000:bluetooth_rxtx.c **** 	u16 grmdm, mdmctrl;
 279              		.loc 1 1000 1 is_stmt 1 view -0
 280              		.cfi_startproc
 281              		@ args = 0, pretend = 0, frame = 0
 282              		@ frame_needed = 0, uses_anonymous_args = 0
1000:bluetooth_rxtx.c **** 	u16 grmdm, mdmctrl;
 283              		.loc 1 1000 1 is_stmt 0 view .LVU73
 284 0000 70B5     		push	{r4, r5, r6, lr}
 285              		.cfi_def_cfa_offset 16
 286              		.cfi_offset 4, -16
 287              		.cfi_offset 5, -12
 288              		.cfi_offset 6, -8
 289              		.cfi_offset 14, -4
1001:bluetooth_rxtx.c **** 
 290              		.loc 1 1001 2 is_stmt 1 view .LVU74
1003:bluetooth_rxtx.c **** 		mdmctrl = 0x0029; // 160 kHz frequency deviation
 291              		.loc 1 1003 2 view .LVU75
1003:bluetooth_rxtx.c **** 		mdmctrl = 0x0029; // 160 kHz frequency deviation
 292              		.loc 1 1003 17 is_stmt 0 view .LVU76
 293 0002 294B     		ldr	r3, .L34
1000:bluetooth_rxtx.c **** 	u16 grmdm, mdmctrl;
 294              		.loc 1 1000 1 view .LVU77
 295 0004 0446     		mov	r4, r0
1003:bluetooth_rxtx.c **** 		mdmctrl = 0x0029; // 160 kHz frequency deviation
ARM GAS  /tmp/ccwF1FQu.s 			page 34


 296              		.loc 1 1003 17 view .LVU78
 297 0006 1A78     		ldrb	r2, [r3]	@ zero_extendqisi2
1003:bluetooth_rxtx.c **** 		mdmctrl = 0x0029; // 160 kHz frequency deviation
 298              		.loc 1 1003 5 view .LVU79
 299 0008 002A     		cmp	r2, #0
 300 000a 48D0     		beq	.L29
1014:bluetooth_rxtx.c **** 		mdmctrl = 0x0040; // 250 kHz frequency deviation
 301              		.loc 1 1014 9 is_stmt 1 view .LVU80
1014:bluetooth_rxtx.c **** 		mdmctrl = 0x0040; // 250 kHz frequency deviation
 302              		.loc 1 1014 24 is_stmt 0 view .LVU81
 303 000c 1B78     		ldrb	r3, [r3]	@ zero_extendqisi2
1014:bluetooth_rxtx.c **** 		mdmctrl = 0x0040; // 250 kHz frequency deviation
 304              		.loc 1 1014 12 view .LVU82
 305 000e 012B     		cmp	r3, #1
 306 0010 44D1     		bne	.L24
1015:bluetooth_rxtx.c **** 		grmdm = 0x0561; // un-buffered mode, packet w/ sync word detection
 307              		.loc 1 1015 11 view .LVU83
 308 0012 4025     		movs	r5, #64
1016:bluetooth_rxtx.c **** 		// 0 00 00 1 010 11 0 00 0 1
 309              		.loc 1 1016 9 view .LVU84
 310 0014 40F26156 		movw	r6, #1377
 311              	.L25:
 312              	.LVL24:
1030:bluetooth_rxtx.c **** 	cc2400_set(LMTST,   0x2b22);
 313              		.loc 1 1030 2 is_stmt 1 view .LVU85
 314 0018 47F6FF71 		movw	r1, #32767
 315 001c 0D20     		movs	r0, #13
 316              	.LVL25:
1030:bluetooth_rxtx.c **** 	cc2400_set(LMTST,   0x2b22);
 317              		.loc 1 1030 2 is_stmt 0 view .LVU86
 318 001e FFF7FEFF 		bl	cc2400_set
 319              	.LVL26:
1031:bluetooth_rxtx.c **** 
 320              		.loc 1 1031 2 is_stmt 1 view .LVU87
 321 0022 42F62231 		movw	r1, #11042
 322 0026 1220     		movs	r0, #18
 323 0028 FFF7FEFF 		bl	cc2400_set
 324              	.LVL27:
1033:bluetooth_rxtx.c **** 	// 1      2      4b
 325              		.loc 1 1033 2 view .LVU88
 326 002c 41F24B21 		movw	r1, #4683
 327 0030 1420     		movs	r0, #20
 328 0032 FFF7FEFF 		bl	cc2400_set
 329              	.LVL28:
1046:bluetooth_rxtx.c **** 
 330              		.loc 1 1046 2 view .LVU89
 331 0036 3146     		mov	r1, r6
 332 0038 2020     		movs	r0, #32
 333 003a FFF7FEFF 		bl	cc2400_set
 334              	.LVL29:
1048:bluetooth_rxtx.c **** 	cc2400_set(SYNCH,   (sync >> 16) & 0xffff);
 335              		.loc 1 1048 2 view .LVU90
 336 003e A1B2     		uxth	r1, r4
 337 0040 2C20     		movs	r0, #44
 338 0042 FFF7FEFF 		bl	cc2400_set
 339              	.LVL30:
1049:bluetooth_rxtx.c **** 
ARM GAS  /tmp/ccwF1FQu.s 			page 35


 340              		.loc 1 1049 2 view .LVU91
 341 0046 210C     		lsrs	r1, r4, #16
1051:bluetooth_rxtx.c **** 	cc2400_set(MDMCTRL, mdmctrl);
 342              		.loc 1 1051 2 is_stmt 0 view .LVU92
 343 0048 184C     		ldr	r4, .L34+4
 344              	.LVL31:
1049:bluetooth_rxtx.c **** 
 345              		.loc 1 1049 2 view .LVU93
 346 004a 2D20     		movs	r0, #45
 347 004c FFF7FEFF 		bl	cc2400_set
 348              	.LVL32:
1051:bluetooth_rxtx.c **** 	cc2400_set(MDMCTRL, mdmctrl);
 349              		.loc 1 1051 2 is_stmt 1 view .LVU94
 350 0050 B4F84C10 		ldrh	r1, [r4, #76]
 351 0054 0220     		movs	r0, #2
 352 0056 0139     		subs	r1, r1, #1
 353 0058 89B2     		uxth	r1, r1
 354 005a FFF7FEFF 		bl	cc2400_set
 355              	.LVL33:
1052:bluetooth_rxtx.c **** 
 356              		.loc 1 1052 2 view .LVU95
 357 005e 2946     		mov	r1, r5
 358 0060 0320     		movs	r0, #3
 359 0062 FFF7FEFF 		bl	cc2400_set
 360              	.LVL34:
1055:bluetooth_rxtx.c **** 
 361              		.loc 1 1055 2 view .LVU96
 362 0066 B4F84C00 		ldrh	r0, [r4, #76]
 363 006a 80B2     		uxth	r0, r0
 364 006c FFF7FEFF 		bl	cs_threshold_calc_and_set
 365              	.LVL35:
1057:bluetooth_rxtx.c **** 
 366              		.loc 1 1057 2 view .LVU97
 367 0070 FFF7FEFF 		bl	clkn_start
 368              	.LVL36:
1059:bluetooth_rxtx.c **** 	cc2400_strobe(SFSON);
 369              		.loc 1 1059 2 view .LVU98
 370              	.L27:
1059:bluetooth_rxtx.c **** 	cc2400_strobe(SFSON);
 371              		.loc 1 1059 45 discriminator 1 view .LVU99
1059:bluetooth_rxtx.c **** 	cc2400_strobe(SFSON);
 372              		.loc 1 1059 8 discriminator 1 view .LVU100
1059:bluetooth_rxtx.c **** 	cc2400_strobe(SFSON);
 373              		.loc 1 1059 11 is_stmt 0 discriminator 1 view .LVU101
 374 0074 FFF7FEFF 		bl	cc2400_status
 375              	.LVL37:
1059:bluetooth_rxtx.c **** 	cc2400_strobe(SFSON);
 376              		.loc 1 1059 8 discriminator 1 view .LVU102
 377 0078 4206     		lsls	r2, r0, #25
 378 007a FBD5     		bpl	.L27
1060:bluetooth_rxtx.c **** 	while (!(cc2400_status() & FS_LOCK));
 379              		.loc 1 1060 2 is_stmt 1 view .LVU103
 380 007c 6120     		movs	r0, #97
 381 007e FFF7FEFF 		bl	cc2400_strobe
 382              	.LVL38:
1061:bluetooth_rxtx.c **** 	cc2400_strobe(SRX);
 383              		.loc 1 1061 2 view .LVU104
ARM GAS  /tmp/ccwF1FQu.s 			page 36


 384              	.L28:
1061:bluetooth_rxtx.c **** 	cc2400_strobe(SRX);
 385              		.loc 1 1061 38 discriminator 1 view .LVU105
1061:bluetooth_rxtx.c **** 	cc2400_strobe(SRX);
 386              		.loc 1 1061 8 discriminator 1 view .LVU106
1061:bluetooth_rxtx.c **** 	cc2400_strobe(SRX);
 387              		.loc 1 1061 11 is_stmt 0 discriminator 1 view .LVU107
 388 0082 FFF7FEFF 		bl	cc2400_status
 389              	.LVL39:
1061:bluetooth_rxtx.c **** 	cc2400_strobe(SRX);
 390              		.loc 1 1061 8 discriminator 1 view .LVU108
 391 0086 4307     		lsls	r3, r0, #29
 392 0088 FBD5     		bpl	.L28
1062:bluetooth_rxtx.c **** #ifdef UBERTOOTH_ONE
 393              		.loc 1 1062 2 is_stmt 1 view .LVU109
 394 008a 6220     		movs	r0, #98
 395 008c FFF7FEFF 		bl	cc2400_strobe
 396              	.LVL40:
1064:bluetooth_rxtx.c **** 	HGM_SET;
 397              		.loc 1 1064 2 view .LVU110
 398 0090 8022     		movs	r2, #128
 399 0092 074B     		ldr	r3, .L34+8
 400 0094 1A60     		str	r2, [r3]
1065:bluetooth_rxtx.c **** #endif
 401              		.loc 1 1065 2 view .LVU111
 402 0096 4FF48072 		mov	r2, #256
 403 009a 1A60     		str	r2, [r3]
 404              	.LVL41:
 405              	.L24:
1067:bluetooth_rxtx.c **** 
 406              		.loc 1 1067 1 is_stmt 0 view .LVU112
 407 009c 70BD     		pop	{r4, r5, r6, pc}
 408              	.LVL42:
 409              	.L29:
1004:bluetooth_rxtx.c **** 		grmdm = 0x0461; // un-buffered mode, packet w/ sync word detection
 410              		.loc 1 1004 11 view .LVU113
 411 009e 2925     		movs	r5, #41
1005:bluetooth_rxtx.c **** 		// 0 00 00 1 000 11 0 00 0 1
 412              		.loc 1 1005 9 view .LVU114
 413 00a0 40F26146 		movw	r6, #1121
 414 00a4 B8E7     		b	.L25
 415              	.L35:
 416 00a6 00BF     		.align	2
 417              	.L34:
 418 00a8 00000000 		.word	.LANCHOR1
 419 00ac 00000000 		.word	.LANCHOR0
 420 00b0 58C00920 		.word	537509976
 421              		.cfi_endproc
 422              	.LFE10:
 424              		.section	.text.enqueue,"ax",%progbits
 425              		.align	1
 426              		.syntax unified
 427              		.thumb
 428              		.thumb_func
 429              		.fpu softvfp
 431              	enqueue:
 432              	.LVL43:
ARM GAS  /tmp/ccwF1FQu.s 			page 37


 433              	.LFB0:
 132:bluetooth_rxtx.c **** 	usb_pkt_rx* f = usb_enqueue();
 434              		.loc 1 132 1 is_stmt 1 view -0
 435              		.cfi_startproc
 436              		@ args = 0, pretend = 0, frame = 0
 437              		@ frame_needed = 0, uses_anonymous_args = 0
 132:bluetooth_rxtx.c **** 	usb_pkt_rx* f = usb_enqueue();
 438              		.loc 1 132 1 is_stmt 0 view .LVU116
 439 0000 F8B5     		push	{r3, r4, r5, r6, r7, lr}
 440              		.cfi_def_cfa_offset 24
 441              		.cfi_offset 3, -24
 442              		.cfi_offset 4, -20
 443              		.cfi_offset 5, -16
 444              		.cfi_offset 6, -12
 445              		.cfi_offset 7, -8
 446              		.cfi_offset 14, -4
 133:bluetooth_rxtx.c **** 
 447              		.loc 1 133 2 is_stmt 1 view .LVU117
 132:bluetooth_rxtx.c **** 	usb_pkt_rx* f = usb_enqueue();
 448              		.loc 1 132 1 is_stmt 0 view .LVU118
 449 0002 0646     		mov	r6, r0
 450 0004 0F46     		mov	r7, r1
 133:bluetooth_rxtx.c **** 
 451              		.loc 1 133 18 view .LVU119
 452 0006 FFF7FEFF 		bl	usb_enqueue
 453              	.LVL44:
 136:bluetooth_rxtx.c **** 		status |= FIFO_OVERFLOW;
 454              		.loc 1 136 2 is_stmt 1 view .LVU120
 455 000a 1D4D     		ldr	r5, .L41
 136:bluetooth_rxtx.c **** 		status |= FIFO_OVERFLOW;
 456              		.loc 1 136 5 is_stmt 0 view .LVU121
 457 000c 0446     		mov	r4, r0
 458 000e 20B9     		cbnz	r0, .L37
 137:bluetooth_rxtx.c **** 		return 0;
 459              		.loc 1 137 3 is_stmt 1 view .LVU122
 137:bluetooth_rxtx.c **** 		return 0;
 460              		.loc 1 137 10 is_stmt 0 view .LVU123
 461 0010 6B78     		ldrb	r3, [r5, #1]	@ zero_extendqisi2
 462 0012 43F00403 		orr	r3, r3, #4
 463 0016 6B70     		strb	r3, [r5, #1]
 138:bluetooth_rxtx.c **** 	}
 464              		.loc 1 138 3 is_stmt 1 view .LVU124
 465              	.LVL45:
 466              	.L36:
 161:bluetooth_rxtx.c **** 
 467              		.loc 1 161 1 is_stmt 0 view .LVU125
 468 0018 F8BD     		pop	{r3, r4, r5, r6, r7, pc}
 469              	.LVL46:
 470              	.L37:
 141:bluetooth_rxtx.c **** 	if(type == SPECAN) {
 471              		.loc 1 141 2 is_stmt 1 view .LVU126
 142:bluetooth_rxtx.c **** 		f->clkn_high = (clkn >> 20) & 0xff;
 472              		.loc 1 142 4 is_stmt 0 view .LVU127
 473 001a 042E     		cmp	r6, #4
 141:bluetooth_rxtx.c **** 	if(type == SPECAN) {
 474              		.loc 1 141 14 view .LVU128
 475 001c 0670     		strb	r6, [r0]
ARM GAS  /tmp/ccwF1FQu.s 			page 38


 142:bluetooth_rxtx.c **** 		f->clkn_high = (clkn >> 20) & 0xff;
 476              		.loc 1 142 2 is_stmt 1 view .LVU129
 142:bluetooth_rxtx.c **** 		f->clkn_high = (clkn >> 20) & 0xff;
 477              		.loc 1 142 4 is_stmt 0 view .LVU130
 478 001e 19D1     		bne	.L39
 143:bluetooth_rxtx.c **** 		f->clk100ns = CLK100NS;
 479              		.loc 1 143 3 is_stmt 1 view .LVU131
 144:bluetooth_rxtx.c **** 	} else {
 480              		.loc 1 144 17 is_stmt 0 view .LVU132
 481 0020 40F63541 		movw	r1, #3125
 143:bluetooth_rxtx.c **** 		f->clk100ns = CLK100NS;
 482              		.loc 1 143 24 view .LVU133
 483 0024 174A     		ldr	r2, .L41+4
 484 0026 1368     		ldr	r3, [r2]
 485 0028 1B0D     		lsrs	r3, r3, #20
 143:bluetooth_rxtx.c **** 		f->clk100ns = CLK100NS;
 486              		.loc 1 143 16 view .LVU134
 487 002a C370     		strb	r3, [r0, #3]
 144:bluetooth_rxtx.c **** 	} else {
 488              		.loc 1 144 3 is_stmt 1 view .LVU135
 144:bluetooth_rxtx.c **** 	} else {
 489              		.loc 1 144 17 is_stmt 0 view .LVU136
 490 002c 1368     		ldr	r3, [r2]
 491 002e 164A     		ldr	r2, .L41+8
 492 0030 C3F31303 		ubfx	r3, r3, #0, #20
 493 0034 1268     		ldr	r2, [r2]
 494 0036 01FB0323 		mla	r3, r1, r3, r2
 144:bluetooth_rxtx.c **** 	} else {
 495              		.loc 1 144 15 view .LVU137
 496 003a 4360     		str	r3, [r0, #4]
 497              	.LVL47:
 498              	.L40:
 155:bluetooth_rxtx.c **** 
 499              		.loc 1 155 2 is_stmt 1 view .LVU138
 500 003c 3222     		movs	r2, #50
 501 003e 3946     		mov	r1, r7
 502 0040 04F10E00 		add	r0, r4, #14
 503 0044 FFF7FEFF 		bl	memcpy
 504              	.LVL48:
 157:bluetooth_rxtx.c **** 	status = 0;
 505              		.loc 1 157 2 view .LVU139
 157:bluetooth_rxtx.c **** 	status = 0;
 506              		.loc 1 157 12 is_stmt 0 view .LVU140
 507 0048 6B78     		ldrb	r3, [r5, #1]	@ zero_extendqisi2
 160:bluetooth_rxtx.c **** }
 508              		.loc 1 160 9 view .LVU141
 509 004a 0120     		movs	r0, #1
 157:bluetooth_rxtx.c **** 	status = 0;
 510              		.loc 1 157 12 view .LVU142
 511 004c 6370     		strb	r3, [r4, #1]
 158:bluetooth_rxtx.c **** 
 512              		.loc 1 158 2 is_stmt 1 view .LVU143
 158:bluetooth_rxtx.c **** 
 513              		.loc 1 158 9 is_stmt 0 view .LVU144
 514 004e 0023     		movs	r3, #0
 515 0050 6B70     		strb	r3, [r5, #1]
 160:bluetooth_rxtx.c **** }
ARM GAS  /tmp/ccwF1FQu.s 			page 39


 516              		.loc 1 160 2 is_stmt 1 view .LVU145
 160:bluetooth_rxtx.c **** }
 517              		.loc 1 160 9 is_stmt 0 view .LVU146
 518 0052 E1E7     		b	.L36
 519              	.LVL49:
 520              	.L39:
 146:bluetooth_rxtx.c **** 		f->clk100ns = idle_buf_clk100ns;
 521              		.loc 1 146 3 is_stmt 1 view .LVU147
 146:bluetooth_rxtx.c **** 		f->clk100ns = idle_buf_clk100ns;
 522              		.loc 1 146 16 is_stmt 0 view .LVU148
 523 0054 AB78     		ldrb	r3, [r5, #2]	@ zero_extendqisi2
 524 0056 C370     		strb	r3, [r0, #3]
 147:bluetooth_rxtx.c **** 		f->channel = (uint8_t)((idle_buf_channel - 2402) & 0xff);
 525              		.loc 1 147 3 is_stmt 1 view .LVU149
 147:bluetooth_rxtx.c **** 		f->channel = (uint8_t)((idle_buf_channel - 2402) & 0xff);
 526              		.loc 1 147 15 is_stmt 0 view .LVU150
 527 0058 6B68     		ldr	r3, [r5, #4]
 528 005a 4360     		str	r3, [r0, #4]
 148:bluetooth_rxtx.c **** 		f->rssi_min = rssi_min;
 529              		.loc 1 148 3 is_stmt 1 view .LVU151
 148:bluetooth_rxtx.c **** 		f->rssi_min = rssi_min;
 530              		.loc 1 148 16 is_stmt 0 view .LVU152
 531 005c 2B89     		ldrh	r3, [r5, #8]
 148:bluetooth_rxtx.c **** 		f->rssi_min = rssi_min;
 532              		.loc 1 148 44 view .LVU153
 533 005e 623B     		subs	r3, r3, #98
 148:bluetooth_rxtx.c **** 		f->rssi_min = rssi_min;
 534              		.loc 1 148 14 view .LVU154
 535 0060 8370     		strb	r3, [r0, #2]
 149:bluetooth_rxtx.c **** 		f->rssi_max = rssi_max;
 536              		.loc 1 149 3 is_stmt 1 view .LVU155
 149:bluetooth_rxtx.c **** 		f->rssi_max = rssi_max;
 537              		.loc 1 149 15 is_stmt 0 view .LVU156
 538 0062 0A4B     		ldr	r3, .L41+12
 539 0064 1B78     		ldrb	r3, [r3]	@ zero_extendqisi2
 540 0066 4372     		strb	r3, [r0, #9]
 150:bluetooth_rxtx.c **** 		f->rssi_avg = rssi_get_avg(idle_buf_channel);
 541              		.loc 1 150 3 is_stmt 1 view .LVU157
 150:bluetooth_rxtx.c **** 		f->rssi_avg = rssi_get_avg(idle_buf_channel);
 542              		.loc 1 150 15 is_stmt 0 view .LVU158
 543 0068 094B     		ldr	r3, .L41+16
 544 006a 1B78     		ldrb	r3, [r3]	@ zero_extendqisi2
 545 006c 0372     		strb	r3, [r0, #8]
 151:bluetooth_rxtx.c **** 		f->rssi_count = rssi_count;
 546              		.loc 1 151 3 is_stmt 1 view .LVU159
 151:bluetooth_rxtx.c **** 		f->rssi_count = rssi_count;
 547              		.loc 1 151 17 is_stmt 0 view .LVU160
 548 006e 2889     		ldrh	r0, [r5, #8]
 549              	.LVL50:
 151:bluetooth_rxtx.c **** 		f->rssi_count = rssi_count;
 550              		.loc 1 151 17 view .LVU161
 551 0070 80B2     		uxth	r0, r0
 552 0072 FFF7FEFF 		bl	rssi_get_avg
 553              	.LVL51:
 152:bluetooth_rxtx.c **** 	}
 554              		.loc 1 152 17 view .LVU162
 555 0076 074B     		ldr	r3, .L41+20
ARM GAS  /tmp/ccwF1FQu.s 			page 40


 151:bluetooth_rxtx.c **** 		f->rssi_count = rssi_count;
 556              		.loc 1 151 15 view .LVU163
 557 0078 A072     		strb	r0, [r4, #10]
 152:bluetooth_rxtx.c **** 	}
 558              		.loc 1 152 3 is_stmt 1 view .LVU164
 152:bluetooth_rxtx.c **** 	}
 559              		.loc 1 152 17 is_stmt 0 view .LVU165
 560 007a 1B78     		ldrb	r3, [r3]	@ zero_extendqisi2
 561 007c E372     		strb	r3, [r4, #11]
 562 007e DDE7     		b	.L40
 563              	.L42:
 564              		.align	2
 565              	.L41:
 566 0080 00000000 		.word	.LANCHOR1
 567 0084 00000000 		.word	clkn
 568 0088 08400040 		.word	1073758216
 569 008c 00000000 		.word	rssi_min
 570 0090 00000000 		.word	rssi_max
 571 0094 00000000 		.word	rssi_count
 572              		.cfi_endproc
 573              	.LFE0:
 575              		.section	.text.cc2400_idle,"ax",%progbits
 576              		.align	1
 577              		.syntax unified
 578              		.thumb
 579              		.thumb_func
 580              		.fpu softvfp
 582              	cc2400_idle:
 583              	.LFB8:
 906:bluetooth_rxtx.c **** 	cc2400_strobe(SRFOFF);
 584              		.loc 1 906 1 is_stmt 1 view -0
 585              		.cfi_startproc
 586              		@ args = 0, pretend = 0, frame = 0
 587              		@ frame_needed = 0, uses_anonymous_args = 0
 588 0000 10B5     		push	{r4, lr}
 589              		.cfi_def_cfa_offset 8
 590              		.cfi_offset 4, -8
 591              		.cfi_offset 14, -4
 907:bluetooth_rxtx.c **** 	while ((cc2400_status() & FS_LOCK)); // need to wait for unlock?
 592              		.loc 1 907 2 view .LVU167
 593 0002 6420     		movs	r0, #100
 594 0004 FFF7FEFF 		bl	cc2400_strobe
 595              	.LVL52:
 908:bluetooth_rxtx.c **** 
 596              		.loc 1 908 2 view .LVU168
 597              	.L44:
 908:bluetooth_rxtx.c **** 
 598              		.loc 1 908 37 discriminator 1 view .LVU169
 908:bluetooth_rxtx.c **** 
 599              		.loc 1 908 8 discriminator 1 view .LVU170
 908:bluetooth_rxtx.c **** 
 600              		.loc 1 908 10 is_stmt 0 discriminator 1 view .LVU171
 601 0008 FFF7FEFF 		bl	cc2400_status
 602              	.LVL53:
 908:bluetooth_rxtx.c **** 
 603              		.loc 1 908 8 discriminator 1 view .LVU172
 604 000c 10F00404 		ands	r4, r0, #4
ARM GAS  /tmp/ccwF1FQu.s 			page 41


 605 0010 FAD1     		bne	.L44
 911:bluetooth_rxtx.c **** 	HGM_CLR;
 606              		.loc 1 911 2 is_stmt 1 view .LVU173
 607 0012 8022     		movs	r2, #128
 608 0014 214B     		ldr	r3, .L46
 915:bluetooth_rxtx.c **** 	TXLED_CLR;
 609              		.loc 1 915 2 is_stmt 0 view .LVU174
 610 0016 1021     		movs	r1, #16
 911:bluetooth_rxtx.c **** 	HGM_CLR;
 611              		.loc 1 911 2 view .LVU175
 612 0018 1A60     		str	r2, [r3]
 912:bluetooth_rxtx.c **** #endif
 613              		.loc 1 912 2 is_stmt 1 view .LVU176
 614 001a 4FF48072 		mov	r2, #256
 615 001e 1A60     		str	r2, [r3]
 915:bluetooth_rxtx.c **** 	TXLED_CLR;
 616              		.loc 1 915 2 view .LVU177
 617 0020 43F8201C 		str	r1, [r3, #-32]
 916:bluetooth_rxtx.c **** 	USRLED_CLR;
 618              		.loc 1 916 2 view .LVU178
 619 0024 43F8202C 		str	r2, [r3, #-32]
 917:bluetooth_rxtx.c **** 
 620              		.loc 1 917 2 view .LVU179
 621 0028 0222     		movs	r2, #2
 622 002a 43F8202C 		str	r2, [r3, #-32]
 919:bluetooth_rxtx.c **** 	dio_ssp_stop();
 623              		.loc 1 919 2 view .LVU180
 624 002e FFF7FEFF 		bl	clkn_stop
 625              	.LVL54:
 920:bluetooth_rxtx.c **** 	cs_reset();
 626              		.loc 1 920 2 view .LVU181
 627 0032 FFF7FEFF 		bl	dio_ssp_stop
 628              	.LVL55:
 921:bluetooth_rxtx.c **** 	rssi_reset();
 629              		.loc 1 921 2 view .LVU182
 630 0036 FFF7FEFF 		bl	cs_reset
 631              	.LVL56:
 922:bluetooth_rxtx.c **** 
 632              		.loc 1 922 2 view .LVU183
 633 003a FFF7FEFF 		bl	rssi_reset
 634              	.LVL57:
 925:bluetooth_rxtx.c **** 	do_hop = 0;
 635              		.loc 1 925 2 view .LVU184
 927:bluetooth_rxtx.c **** 	hop_direct_channel = 0;
 636              		.loc 1 927 10 is_stmt 0 view .LVU185
 637 003e 40F68911 		movw	r1, #2441
 925:bluetooth_rxtx.c **** 	do_hop = 0;
 638              		.loc 1 925 11 view .LVU186
 639 0042 174B     		ldr	r3, .L46+4
 927:bluetooth_rxtx.c **** 	hop_direct_channel = 0;
 640              		.loc 1 927 10 view .LVU187
 641 0044 174A     		ldr	r2, .L46+8
 925:bluetooth_rxtx.c **** 	do_hop = 0;
 642              		.loc 1 925 11 view .LVU188
 643 0046 9C72     		strb	r4, [r3, #10]
 926:bluetooth_rxtx.c **** 	channel = 2441;
 644              		.loc 1 926 2 is_stmt 1 view .LVU189
ARM GAS  /tmp/ccwF1FQu.s 			page 42


 926:bluetooth_rxtx.c **** 	channel = 2441;
 645              		.loc 1 926 9 is_stmt 0 view .LVU190
 646 0048 DC72     		strb	r4, [r3, #11]
 927:bluetooth_rxtx.c **** 	hop_direct_channel = 0;
 647              		.loc 1 927 2 is_stmt 1 view .LVU191
 927:bluetooth_rxtx.c **** 	hop_direct_channel = 0;
 648              		.loc 1 927 10 is_stmt 0 view .LVU192
 649 004a A2F84C10 		strh	r1, [r2, #76]	@ movhi
 928:bluetooth_rxtx.c **** 	hop_timeout = 158;
 650              		.loc 1 928 2 is_stmt 1 view .LVU193
 929:bluetooth_rxtx.c **** 	requested_channel = 0;
 651              		.loc 1 929 14 is_stmt 0 view .LVU194
 652 004e 9E21     		movs	r1, #158
 928:bluetooth_rxtx.c **** 	hop_timeout = 158;
 653              		.loc 1 928 21 view .LVU195
 654 0050 9C81     		strh	r4, [r3, #12]	@ movhi
 929:bluetooth_rxtx.c **** 	requested_channel = 0;
 655              		.loc 1 929 2 is_stmt 1 view .LVU196
 929:bluetooth_rxtx.c **** 	requested_channel = 0;
 656              		.loc 1 929 14 is_stmt 0 view .LVU197
 657 0052 A2F84E10 		strh	r1, [r2, #78]	@ movhi
 930:bluetooth_rxtx.c **** 	le_adv_channel = 2402;
 658              		.loc 1 930 2 is_stmt 1 view .LVU198
 931:bluetooth_rxtx.c **** 
 659              		.loc 1 931 17 is_stmt 0 view .LVU199
 660 0056 40F66211 		movw	r1, #2402
 930:bluetooth_rxtx.c **** 	le_adv_channel = 2402;
 661              		.loc 1 930 20 view .LVU200
 662 005a DC81     		strh	r4, [r3, #14]	@ movhi
 931:bluetooth_rxtx.c **** 
 663              		.loc 1 931 2 is_stmt 1 view .LVU201
 931:bluetooth_rxtx.c **** 
 664              		.loc 1 931 17 is_stmt 0 view .LVU202
 665 005c A2F85010 		strh	r1, [r2, #80]	@ movhi
 935:bluetooth_rxtx.c **** 	idle_buf_clk100ns = 0;
 666              		.loc 1 935 2 is_stmt 1 view .LVU203
 935:bluetooth_rxtx.c **** 	idle_buf_clk100ns = 0;
 667              		.loc 1 935 21 is_stmt 0 view .LVU204
 668 0060 9C70     		strb	r4, [r3, #2]
 936:bluetooth_rxtx.c **** 	idle_buf_channel = 0;
 669              		.loc 1 936 2 is_stmt 1 view .LVU205
 936:bluetooth_rxtx.c **** 	idle_buf_channel = 0;
 670              		.loc 1 936 20 is_stmt 0 view .LVU206
 671 0062 5C60     		str	r4, [r3, #4]
 937:bluetooth_rxtx.c **** 	dma_discard = 0;
 672              		.loc 1 937 2 is_stmt 1 view .LVU207
 937:bluetooth_rxtx.c **** 	dma_discard = 0;
 673              		.loc 1 937 19 is_stmt 0 view .LVU208
 674 0064 1C81     		strh	r4, [r3, #8]	@ movhi
 938:bluetooth_rxtx.c **** 	status = 0;
 675              		.loc 1 938 2 is_stmt 1 view .LVU209
 938:bluetooth_rxtx.c **** 	status = 0;
 676              		.loc 1 938 14 is_stmt 0 view .LVU210
 677 0066 1C74     		strb	r4, [r3, #16]
 939:bluetooth_rxtx.c **** 
 678              		.loc 1 939 2 is_stmt 1 view .LVU211
 939:bluetooth_rxtx.c **** 
ARM GAS  /tmp/ccwF1FQu.s 			page 43


 679              		.loc 1 939 9 is_stmt 0 view .LVU212
 680 0068 5C70     		strb	r4, [r3, #1]
 942:bluetooth_rxtx.c **** 	requested_mode = MODE_IDLE;
 681              		.loc 1 942 2 is_stmt 1 view .LVU213
 942:bluetooth_rxtx.c **** 	requested_mode = MODE_IDLE;
 682              		.loc 1 942 7 is_stmt 0 view .LVU214
 683 006a 5C74     		strb	r4, [r3, #17]
 943:bluetooth_rxtx.c **** 	jam_mode = JAM_NONE;
 684              		.loc 1 943 2 is_stmt 1 view .LVU215
 943:bluetooth_rxtx.c **** 	jam_mode = JAM_NONE;
 685              		.loc 1 943 17 is_stmt 0 view .LVU216
 686 006c 9C74     		strb	r4, [r3, #18]
 944:bluetooth_rxtx.c **** 	ego_mode = EGO_FOLLOW;
 687              		.loc 1 944 2 is_stmt 1 view .LVU217
 944:bluetooth_rxtx.c **** 	ego_mode = EGO_FOLLOW;
 688              		.loc 1 944 11 is_stmt 0 view .LVU218
 689 006e DC74     		strb	r4, [r3, #19]
 945:bluetooth_rxtx.c **** 
 690              		.loc 1 945 2 is_stmt 1 view .LVU219
 945:bluetooth_rxtx.c **** 
 691              		.loc 1 945 11 is_stmt 0 view .LVU220
 692 0070 1C75     		strb	r4, [r3, #20]
 947:bluetooth_rxtx.c **** 
 693              		.loc 1 947 2 is_stmt 1 view .LVU221
 947:bluetooth_rxtx.c **** 
 694              		.loc 1 947 13 is_stmt 0 view .LVU222
 695 0072 1C70     		strb	r4, [r3]
 950:bluetooth_rxtx.c **** 	high_freq = 2483;
 696              		.loc 1 950 2 is_stmt 1 view .LVU223
 950:bluetooth_rxtx.c **** 	high_freq = 2483;
 697              		.loc 1 950 11 is_stmt 0 view .LVU224
 698 0074 4FF41663 		mov	r3, #2400
 699 0078 A2F85230 		strh	r3, [r2, #82]	@ movhi
 951:bluetooth_rxtx.c **** 	rssi_threshold = -30;
 700              		.loc 1 951 2 is_stmt 1 view .LVU225
 951:bluetooth_rxtx.c **** 	rssi_threshold = -30;
 701              		.loc 1 951 12 is_stmt 0 view .LVU226
 702 007c 40F6B313 		movw	r3, #2483
 703 0080 A2F85430 		strh	r3, [r2, #84]	@ movhi
 952:bluetooth_rxtx.c **** 
 704              		.loc 1 952 2 is_stmt 1 view .LVU227
 952:bluetooth_rxtx.c **** 
 705              		.loc 1 952 17 is_stmt 0 view .LVU228
 706 0084 E223     		movs	r3, #226
 954:bluetooth_rxtx.c **** 	target.syncword = 0;
 707              		.loc 1 954 17 view .LVU229
 708 0086 0020     		movs	r0, #0
 709 0088 0021     		movs	r1, #0
 952:bluetooth_rxtx.c **** 
 710              		.loc 1 952 17 view .LVU230
 711 008a 82F85630 		strb	r3, [r2, #86]
 954:bluetooth_rxtx.c **** 	target.syncword = 0;
 712              		.loc 1 954 2 is_stmt 1 view .LVU231
 954:bluetooth_rxtx.c **** 	target.syncword = 0;
 713              		.loc 1 954 17 is_stmt 0 view .LVU232
 714 008e 064B     		ldr	r3, .L46+12
 715 0090 C3E90001 		strd	r0, [r3]
ARM GAS  /tmp/ccwF1FQu.s 			page 44


 955:bluetooth_rxtx.c **** }
 716              		.loc 1 955 2 is_stmt 1 view .LVU233
 955:bluetooth_rxtx.c **** }
 717              		.loc 1 955 18 is_stmt 0 view .LVU234
 718 0094 C3E90201 		strd	r0, [r3, #8]
 956:bluetooth_rxtx.c **** 
 719              		.loc 1 956 1 view .LVU235
 720 0098 10BD     		pop	{r4, pc}
 721              	.L47:
 722 009a 00BF     		.align	2
 723              	.L46:
 724 009c 5CC00920 		.word	537509980
 725 00a0 00000000 		.word	.LANCHOR1
 726 00a4 00000000 		.word	.LANCHOR0
 727 00a8 00000000 		.word	target
 728              		.cfi_endproc
 729              	.LFE8:
 731              		.section	.text.cb_follow_le,"ax",%progbits
 732              		.align	1
 733              		.global	cb_follow_le
 734              		.syntax unified
 735              		.thumb
 736              		.thumb_func
 737              		.fpu softvfp
 739              	cb_follow_le:
 740              	.LFB24:
1543:bluetooth_rxtx.c **** 
1544:bluetooth_rxtx.c **** /* reset le state, called by bt_generic_le and bt_follow_le() */
1545:bluetooth_rxtx.c **** void reset_le() {
1546:bluetooth_rxtx.c **** 	le_set_access_address(0x8e89bed6);     // advertising channel access address
1547:bluetooth_rxtx.c **** 	le.crc_init  = 0x555555;               // advertising channel CRCInit
1548:bluetooth_rxtx.c **** 	le.crc_init_reversed = 0xAAAAAA;
1549:bluetooth_rxtx.c **** 	le.crc_verify = 0;
1550:bluetooth_rxtx.c **** 	le.last_packet = 0;
1551:bluetooth_rxtx.c **** 
1552:bluetooth_rxtx.c **** 	le.link_state = LINK_INACTIVE;
1553:bluetooth_rxtx.c **** 
1554:bluetooth_rxtx.c **** 	le.channel_idx = 0;
1555:bluetooth_rxtx.c **** 	le.channel_increment = 0;
1556:bluetooth_rxtx.c **** 
1557:bluetooth_rxtx.c **** 	le.conn_epoch = 0;
1558:bluetooth_rxtx.c **** 	le.interval_timer = 0;
1559:bluetooth_rxtx.c **** 	le.conn_interval = 0;
1560:bluetooth_rxtx.c **** 	le.conn_interval = 0;
1561:bluetooth_rxtx.c **** 	le.conn_count = 0;
1562:bluetooth_rxtx.c **** 
1563:bluetooth_rxtx.c **** 	le.win_size = 0;
1564:bluetooth_rxtx.c **** 	le.win_offset = 0;
1565:bluetooth_rxtx.c **** 
1566:bluetooth_rxtx.c **** 	le.update_pending = 0;
1567:bluetooth_rxtx.c **** 	le.update_instant = 0;
1568:bluetooth_rxtx.c **** 	le.interval_update = 0;
1569:bluetooth_rxtx.c **** 	le.win_size_update = 0;
1570:bluetooth_rxtx.c **** 	le.win_offset_update = 0;
1571:bluetooth_rxtx.c **** 
1572:bluetooth_rxtx.c **** 	do_hop = 0;
1573:bluetooth_rxtx.c **** }
ARM GAS  /tmp/ccwF1FQu.s 			page 45


1574:bluetooth_rxtx.c **** 
1575:bluetooth_rxtx.c **** // reset LE Promisc state
1576:bluetooth_rxtx.c **** void reset_le_promisc(void) {
1577:bluetooth_rxtx.c **** 	memset(&le_promisc, 0, sizeof(le_promisc));
1578:bluetooth_rxtx.c **** 	le_promisc.smallest_hop_interval = 0xffffffff;
1579:bluetooth_rxtx.c **** }
1580:bluetooth_rxtx.c **** 
1581:bluetooth_rxtx.c **** /* generic le mode */
1582:bluetooth_rxtx.c **** void bt_generic_le(u8 active_mode)
1583:bluetooth_rxtx.c **** {
1584:bluetooth_rxtx.c **** 	u8 hold;
1585:bluetooth_rxtx.c **** 	int i, j;
1586:bluetooth_rxtx.c **** 	int8_t rssi, rssi_at_trigger;
1587:bluetooth_rxtx.c **** 
1588:bluetooth_rxtx.c **** 	modulation = MOD_BT_LOW_ENERGY;
1589:bluetooth_rxtx.c **** 	mode = active_mode;
1590:bluetooth_rxtx.c **** 
1591:bluetooth_rxtx.c **** 	reset_le();
1592:bluetooth_rxtx.c **** 
1593:bluetooth_rxtx.c **** 	// enable USB interrupts
1594:bluetooth_rxtx.c **** 	ISER0 = ISER0_ISE_USB;
1595:bluetooth_rxtx.c **** 
1596:bluetooth_rxtx.c **** 	RXLED_CLR;
1597:bluetooth_rxtx.c **** 
1598:bluetooth_rxtx.c **** 	usb_queue_init();
1599:bluetooth_rxtx.c **** 	dio_ssp_init();
1600:bluetooth_rxtx.c **** 	dma_init_rx_symbols();
1601:bluetooth_rxtx.c **** 	dio_ssp_start();
1602:bluetooth_rxtx.c **** 	cc2400_rx();
1603:bluetooth_rxtx.c **** 
1604:bluetooth_rxtx.c **** 	cs_trigger_enable();
1605:bluetooth_rxtx.c **** 
1606:bluetooth_rxtx.c **** 	hold = 0;
1607:bluetooth_rxtx.c **** 
1608:bluetooth_rxtx.c **** 	while (requested_mode == active_mode) {
1609:bluetooth_rxtx.c **** 		if (requested_channel != 0) {
1610:bluetooth_rxtx.c **** 			cc2400_strobe(SRFOFF);
1611:bluetooth_rxtx.c **** 			while ((cc2400_status() & FS_LOCK)); // need to wait for unlock?
1612:bluetooth_rxtx.c **** 
1613:bluetooth_rxtx.c **** 			/* Retune */
1614:bluetooth_rxtx.c **** 			cc2400_set(FSDIV, channel - 1);
1615:bluetooth_rxtx.c **** 
1616:bluetooth_rxtx.c **** 			/* Wait for lock */
1617:bluetooth_rxtx.c **** 			cc2400_strobe(SFSON);
1618:bluetooth_rxtx.c **** 			while (!(cc2400_status() & FS_LOCK));
1619:bluetooth_rxtx.c **** 
1620:bluetooth_rxtx.c **** 			/* RX mode */
1621:bluetooth_rxtx.c **** 			cc2400_strobe(SRX);
1622:bluetooth_rxtx.c **** 
1623:bluetooth_rxtx.c **** 			requested_channel = 0;
1624:bluetooth_rxtx.c **** 		}
1625:bluetooth_rxtx.c **** 
1626:bluetooth_rxtx.c **** 		if (do_hop) {
1627:bluetooth_rxtx.c **** 			hop();
1628:bluetooth_rxtx.c **** 		} else {
1629:bluetooth_rxtx.c **** 			TXLED_CLR;
1630:bluetooth_rxtx.c **** 		}
ARM GAS  /tmp/ccwF1FQu.s 			page 46


1631:bluetooth_rxtx.c **** 
1632:bluetooth_rxtx.c **** 		RXLED_CLR;
1633:bluetooth_rxtx.c **** 
1634:bluetooth_rxtx.c **** 		/* Wait for DMA. Meanwhile keep track of RSSI. */
1635:bluetooth_rxtx.c **** 		rssi_reset();
1636:bluetooth_rxtx.c **** 		rssi_at_trigger = INT8_MIN;
1637:bluetooth_rxtx.c **** 		while ((rx_tc == 0) && (rx_err == 0))
1638:bluetooth_rxtx.c **** 		{
1639:bluetooth_rxtx.c **** 			rssi = (int8_t)(cc2400_get(RSSI) >> 8);
1640:bluetooth_rxtx.c **** 			if (cs_trigger && (rssi_at_trigger == INT8_MIN)) {
1641:bluetooth_rxtx.c **** 				rssi = MAX(rssi,(cs_threshold_cur+54));
1642:bluetooth_rxtx.c **** 				rssi_at_trigger = rssi;
1643:bluetooth_rxtx.c **** 			}
1644:bluetooth_rxtx.c **** 			rssi_add(rssi);
1645:bluetooth_rxtx.c **** 		}
1646:bluetooth_rxtx.c **** 
1647:bluetooth_rxtx.c **** 		if (rx_err) {
1648:bluetooth_rxtx.c **** 			status |= DMA_ERROR;
1649:bluetooth_rxtx.c **** 		}
1650:bluetooth_rxtx.c **** 
1651:bluetooth_rxtx.c **** 		/* No DMA transfer? */
1652:bluetooth_rxtx.c **** 		if (!rx_tc)
1653:bluetooth_rxtx.c **** 			goto rx_continue;
1654:bluetooth_rxtx.c **** 
1655:bluetooth_rxtx.c **** 		/* Missed a DMA trasfer? */
1656:bluetooth_rxtx.c **** 		if (rx_tc > 1)
1657:bluetooth_rxtx.c **** 			status |= DMA_OVERFLOW;
1658:bluetooth_rxtx.c **** 
1659:bluetooth_rxtx.c **** 		rssi_iir_update(channel);
1660:bluetooth_rxtx.c **** 
1661:bluetooth_rxtx.c **** 		/* Set squelch hold if there was either a CS trigger, squelch
1662:bluetooth_rxtx.c **** 		 * is disabled, or if the current rssi_max is above the same
1663:bluetooth_rxtx.c **** 		 * threshold. Currently, this is redundant, but allows for
1664:bluetooth_rxtx.c **** 		 * per-channel or other rssi triggers in the future. */
1665:bluetooth_rxtx.c **** 		if (cs_trigger || cs_no_squelch) {
1666:bluetooth_rxtx.c **** 			status |= CS_TRIGGER;
1667:bluetooth_rxtx.c **** 			hold = CS_HOLD_TIME;
1668:bluetooth_rxtx.c **** 			cs_trigger = 0;
1669:bluetooth_rxtx.c **** 		}
1670:bluetooth_rxtx.c **** 
1671:bluetooth_rxtx.c **** 		if (rssi_max >= (cs_threshold_cur + 54)) {
1672:bluetooth_rxtx.c **** 			status |= RSSI_TRIGGER;
1673:bluetooth_rxtx.c **** 			hold = CS_HOLD_TIME;
1674:bluetooth_rxtx.c **** 		}
1675:bluetooth_rxtx.c **** 
1676:bluetooth_rxtx.c **** 		/* Hold expired? Ignore data. */
1677:bluetooth_rxtx.c **** 		if (hold == 0) {
1678:bluetooth_rxtx.c **** 			goto rx_continue;
1679:bluetooth_rxtx.c **** 		}
1680:bluetooth_rxtx.c **** 		hold--;
1681:bluetooth_rxtx.c **** 
1682:bluetooth_rxtx.c **** 		// copy the previously unpacked symbols to the front of the buffer
1683:bluetooth_rxtx.c **** 		memcpy(unpacked, unpacked + DMA_SIZE*8, DMA_SIZE*8);
1684:bluetooth_rxtx.c **** 
1685:bluetooth_rxtx.c **** 		// unpack the new packet to the end of the buffer
1686:bluetooth_rxtx.c **** 		for (i = 0; i < DMA_SIZE; ++i) {
1687:bluetooth_rxtx.c **** 			/* output one byte for each received symbol (0x00 or 0x01) */
ARM GAS  /tmp/ccwF1FQu.s 			page 47


1688:bluetooth_rxtx.c **** 			for (j = 0; j < 8; ++j) {
1689:bluetooth_rxtx.c **** 				unpacked[DMA_SIZE*8 + i * 8 + j] = (idle_rxbuf[i] & 0x80) >> 7;
1690:bluetooth_rxtx.c **** 				idle_rxbuf[i] <<= 1;
1691:bluetooth_rxtx.c **** 			}
1692:bluetooth_rxtx.c **** 		}
1693:bluetooth_rxtx.c **** 
1694:bluetooth_rxtx.c **** 		int ret = data_cb(unpacked);
1695:bluetooth_rxtx.c **** 		if (!ret) break;
1696:bluetooth_rxtx.c **** 
1697:bluetooth_rxtx.c **** 	rx_continue:
1698:bluetooth_rxtx.c **** 		rx_tc = 0;
1699:bluetooth_rxtx.c **** 		rx_err = 0;
1700:bluetooth_rxtx.c **** 	}
1701:bluetooth_rxtx.c **** 
1702:bluetooth_rxtx.c **** 	// disable USB interrupts
1703:bluetooth_rxtx.c **** 	ICER0 = ICER0_ICE_USB;
1704:bluetooth_rxtx.c **** 
1705:bluetooth_rxtx.c **** 	// reset the radio completely
1706:bluetooth_rxtx.c **** 	cc2400_idle();
1707:bluetooth_rxtx.c **** 	dio_ssp_stop();
1708:bluetooth_rxtx.c **** 	cs_trigger_disable();
1709:bluetooth_rxtx.c **** }
1710:bluetooth_rxtx.c **** 
1711:bluetooth_rxtx.c **** 
1712:bluetooth_rxtx.c **** void bt_le_sync(u8 active_mode)
1713:bluetooth_rxtx.c **** {
1714:bluetooth_rxtx.c **** 	int i;
1715:bluetooth_rxtx.c **** 	int8_t rssi;
1716:bluetooth_rxtx.c **** 	static int restart_jamming = 0;
1717:bluetooth_rxtx.c **** 
1718:bluetooth_rxtx.c **** 	modulation = MOD_BT_LOW_ENERGY;
1719:bluetooth_rxtx.c **** 	mode = active_mode;
1720:bluetooth_rxtx.c **** 
1721:bluetooth_rxtx.c **** 	le.link_state = LINK_LISTENING;
1722:bluetooth_rxtx.c **** 
1723:bluetooth_rxtx.c **** 	// enable USB interrupts
1724:bluetooth_rxtx.c **** 	ISER0 = ISER0_ISE_USB;
1725:bluetooth_rxtx.c **** 
1726:bluetooth_rxtx.c **** 	RXLED_CLR;
1727:bluetooth_rxtx.c **** 
1728:bluetooth_rxtx.c **** 	usb_queue_init();
1729:bluetooth_rxtx.c **** 	dio_ssp_init();
1730:bluetooth_rxtx.c **** 	dma_init_le();
1731:bluetooth_rxtx.c **** 	dio_ssp_start();
1732:bluetooth_rxtx.c **** 
1733:bluetooth_rxtx.c **** 	cc2400_rx_sync(rbit(le.access_address)); // bit-reversed access address
1734:bluetooth_rxtx.c **** 
1735:bluetooth_rxtx.c **** 	while (requested_mode == active_mode) {
1736:bluetooth_rxtx.c **** 		if (requested_channel != 0) {
1737:bluetooth_rxtx.c **** 			cc2400_strobe(SRFOFF);
1738:bluetooth_rxtx.c **** 			while ((cc2400_status() & FS_LOCK)); // need to wait for unlock?
1739:bluetooth_rxtx.c **** 
1740:bluetooth_rxtx.c **** 			/* Retune */
1741:bluetooth_rxtx.c **** 			cc2400_set(FSDIV, channel - 1);
1742:bluetooth_rxtx.c **** 
1743:bluetooth_rxtx.c **** 			/* Wait for lock */
1744:bluetooth_rxtx.c **** 			cc2400_strobe(SFSON);
ARM GAS  /tmp/ccwF1FQu.s 			page 48


1745:bluetooth_rxtx.c **** 			while (!(cc2400_status() & FS_LOCK));
1746:bluetooth_rxtx.c **** 
1747:bluetooth_rxtx.c **** 			/* RX mode */
1748:bluetooth_rxtx.c **** 			cc2400_strobe(SRX);
1749:bluetooth_rxtx.c **** 
1750:bluetooth_rxtx.c **** 			requested_channel = 0;
1751:bluetooth_rxtx.c **** 		}
1752:bluetooth_rxtx.c **** 
1753:bluetooth_rxtx.c **** 		RXLED_CLR;
1754:bluetooth_rxtx.c **** 
1755:bluetooth_rxtx.c **** 		/* Wait for DMA. Meanwhile keep track of RSSI. */
1756:bluetooth_rxtx.c **** 		rssi_reset();
1757:bluetooth_rxtx.c **** 		while ((rx_tc == 0) && (rx_err == 0) && (do_hop == 0) && requested_mode == active_mode)
1758:bluetooth_rxtx.c **** 			;
1759:bluetooth_rxtx.c **** 
1760:bluetooth_rxtx.c **** 		rssi = (int8_t)(cc2400_get(RSSI) >> 8);
1761:bluetooth_rxtx.c **** 		rssi_min = rssi_max = rssi;
1762:bluetooth_rxtx.c **** 
1763:bluetooth_rxtx.c **** 		if (requested_mode != active_mode) {
1764:bluetooth_rxtx.c **** 			goto cleanup;
1765:bluetooth_rxtx.c **** 		}
1766:bluetooth_rxtx.c **** 
1767:bluetooth_rxtx.c **** 		if (rx_err) {
1768:bluetooth_rxtx.c **** 			status |= DMA_ERROR;
1769:bluetooth_rxtx.c **** 		}
1770:bluetooth_rxtx.c **** 
1771:bluetooth_rxtx.c **** 		if (do_hop)
1772:bluetooth_rxtx.c **** 			goto rx_flush;
1773:bluetooth_rxtx.c **** 
1774:bluetooth_rxtx.c **** 		/* No DMA transfer? */
1775:bluetooth_rxtx.c **** 		if (!rx_tc)
1776:bluetooth_rxtx.c **** 			continue;
1777:bluetooth_rxtx.c **** 
1778:bluetooth_rxtx.c **** 		/////////////////////
1779:bluetooth_rxtx.c **** 		// process the packet
1780:bluetooth_rxtx.c **** 
1781:bluetooth_rxtx.c **** 		uint32_t packet[48/4+1] = { 0, };
1782:bluetooth_rxtx.c **** 		u8 *p = (u8 *)packet;
1783:bluetooth_rxtx.c **** 		packet[0] = le.access_address;
1784:bluetooth_rxtx.c **** 
1785:bluetooth_rxtx.c **** 		const uint32_t *whit = whitening_word[btle_channel_index(channel)];
1786:bluetooth_rxtx.c **** 		for (i = 0; i < 4; i+= 4) {
1787:bluetooth_rxtx.c **** 			uint32_t v = rxbuf1[i+0] << 24
1788:bluetooth_rxtx.c **** 					   | rxbuf1[i+1] << 16
1789:bluetooth_rxtx.c **** 					   | rxbuf1[i+2] << 8
1790:bluetooth_rxtx.c **** 					   | rxbuf1[i+3] << 0;
1791:bluetooth_rxtx.c **** 			packet[i/4+1] = rbit(v) ^ whit[i/4];
1792:bluetooth_rxtx.c **** 		}
1793:bluetooth_rxtx.c **** 
1794:bluetooth_rxtx.c **** 		unsigned len = (p[5] & 0x3f) + 2;
1795:bluetooth_rxtx.c **** 		if (len > 39)
1796:bluetooth_rxtx.c **** 			goto rx_flush;
1797:bluetooth_rxtx.c **** 
1798:bluetooth_rxtx.c **** 		// transfer the minimum number of bytes from the CC2400
1799:bluetooth_rxtx.c **** 		// this allows us enough time to resume RX for subsequent packets on the same channel
1800:bluetooth_rxtx.c **** 		unsigned total_transfers = ((len + 3) + 4 - 1) / 4;
1801:bluetooth_rxtx.c **** 		if (total_transfers < 11) {
ARM GAS  /tmp/ccwF1FQu.s 			page 49


1802:bluetooth_rxtx.c **** 			while (DMACC0DestAddr < (uint32_t)rxbuf1 + 4 * total_transfers && rx_err == 0)
1803:bluetooth_rxtx.c **** 				;
1804:bluetooth_rxtx.c **** 		} else { // max transfers? just wait till DMA's done
1805:bluetooth_rxtx.c **** 			while (DMACC0Config & DMACCxConfig_E && rx_err == 0)
1806:bluetooth_rxtx.c **** 				;
1807:bluetooth_rxtx.c **** 		}
1808:bluetooth_rxtx.c **** 		DIO_SSP_DMACR &= ~SSPDMACR_RXDMAE;
1809:bluetooth_rxtx.c **** 
1810:bluetooth_rxtx.c **** 		// strobe SFSON to allow the resync to occur while we process the packet
1811:bluetooth_rxtx.c **** 		cc2400_strobe(SFSON);
1812:bluetooth_rxtx.c **** 
1813:bluetooth_rxtx.c **** 		// unwhiten the rest of the packet
1814:bluetooth_rxtx.c **** 		for (i = 4; i < 44; i += 4) {
1815:bluetooth_rxtx.c **** 			uint32_t v = rxbuf1[i+0] << 24
1816:bluetooth_rxtx.c **** 					   | rxbuf1[i+1] << 16
1817:bluetooth_rxtx.c **** 					   | rxbuf1[i+2] << 8
1818:bluetooth_rxtx.c **** 					   | rxbuf1[i+3] << 0;
1819:bluetooth_rxtx.c **** 			packet[i/4+1] = rbit(v) ^ whit[i/4];
1820:bluetooth_rxtx.c **** 		}
1821:bluetooth_rxtx.c **** 
1822:bluetooth_rxtx.c **** 		if (le.crc_verify) {
1823:bluetooth_rxtx.c **** 			u32 calc_crc = btle_crcgen_lut(le.crc_init_reversed, p + 4, len);
1824:bluetooth_rxtx.c **** 			u32 wire_crc = (p[4+len+2] << 16)
1825:bluetooth_rxtx.c **** 						 | (p[4+len+1] << 8)
1826:bluetooth_rxtx.c **** 						 | (p[4+len+0] << 0);
1827:bluetooth_rxtx.c **** 			if (calc_crc != wire_crc) // skip packets with a bad CRC
1828:bluetooth_rxtx.c **** 				goto rx_flush;
1829:bluetooth_rxtx.c **** 		}
1830:bluetooth_rxtx.c **** 
1831:bluetooth_rxtx.c **** 
1832:bluetooth_rxtx.c **** 		RXLED_SET;
1833:bluetooth_rxtx.c **** 		packet_cb((uint8_t *)packet);
1834:bluetooth_rxtx.c **** 
1835:bluetooth_rxtx.c **** 		// disable USB interrupts while we touch USB data structures
1836:bluetooth_rxtx.c **** 		ICER0 = ICER0_ICE_USB;
1837:bluetooth_rxtx.c **** 		enqueue(LE_PACKET, (uint8_t *)packet);
1838:bluetooth_rxtx.c **** 		ISER0 = ISER0_ISE_USB;
1839:bluetooth_rxtx.c **** 
1840:bluetooth_rxtx.c **** 		le.last_packet = CLK100NS;
1841:bluetooth_rxtx.c **** 
1842:bluetooth_rxtx.c **** 	rx_flush:
1843:bluetooth_rxtx.c **** 		// this might happen twice, but it's safe to do so
1844:bluetooth_rxtx.c **** 		cc2400_strobe(SFSON);
1845:bluetooth_rxtx.c **** 
1846:bluetooth_rxtx.c **** 		// flush any excess bytes from the SSP's buffer
1847:bluetooth_rxtx.c **** 		DIO_SSP_DMACR &= ~SSPDMACR_RXDMAE;
1848:bluetooth_rxtx.c **** 		while (SSP1SR & SSPSR_RNE) {
1849:bluetooth_rxtx.c **** 			u8 tmp = (u8)DIO_SSP_DR;
1850:bluetooth_rxtx.c **** 		}
1851:bluetooth_rxtx.c **** 
1852:bluetooth_rxtx.c **** 		// timeout - FIXME this is an ugly hack
1853:bluetooth_rxtx.c **** 		u32 now = CLK100NS;
1854:bluetooth_rxtx.c **** 		if (now < le.last_packet)
1855:bluetooth_rxtx.c **** 			now += 3276800000; // handle rollover
1856:bluetooth_rxtx.c **** 		if  ( // timeout
1857:bluetooth_rxtx.c **** 			((le.link_state == LINK_CONNECTED || le.link_state == LINK_CONN_PENDING)
1858:bluetooth_rxtx.c **** 			&& (now - le.last_packet > 50000000))
ARM GAS  /tmp/ccwF1FQu.s 			page 50


1859:bluetooth_rxtx.c **** 			// jam finished
1860:bluetooth_rxtx.c **** 			|| (le_jam_count == 1)
1861:bluetooth_rxtx.c **** 			)
1862:bluetooth_rxtx.c **** 		{
1863:bluetooth_rxtx.c **** 			reset_le();
1864:bluetooth_rxtx.c **** 			le_jam_count = 0;
1865:bluetooth_rxtx.c **** 			TXLED_CLR;
1866:bluetooth_rxtx.c **** 
1867:bluetooth_rxtx.c **** 			if (jam_mode == JAM_ONCE) {
1868:bluetooth_rxtx.c **** 				jam_mode = JAM_NONE;
1869:bluetooth_rxtx.c **** 				requested_mode = MODE_IDLE;
1870:bluetooth_rxtx.c **** 				goto cleanup;
1871:bluetooth_rxtx.c **** 			}
1872:bluetooth_rxtx.c **** 
1873:bluetooth_rxtx.c **** 			// go back to promisc if the connection dies
1874:bluetooth_rxtx.c **** 			if (active_mode == MODE_BT_PROMISC_LE)
1875:bluetooth_rxtx.c **** 				goto cleanup;
1876:bluetooth_rxtx.c **** 
1877:bluetooth_rxtx.c **** 			le.link_state = LINK_LISTENING;
1878:bluetooth_rxtx.c **** 
1879:bluetooth_rxtx.c **** 			cc2400_strobe(SRFOFF);
1880:bluetooth_rxtx.c **** 			while ((cc2400_status() & FS_LOCK));
1881:bluetooth_rxtx.c **** 
1882:bluetooth_rxtx.c **** 			/* Retune */
1883:bluetooth_rxtx.c **** 			channel = le_adv_channel != 0 ? le_adv_channel : 2402;
1884:bluetooth_rxtx.c **** 			restart_jamming = 1;
1885:bluetooth_rxtx.c **** 		}
1886:bluetooth_rxtx.c **** 
1887:bluetooth_rxtx.c **** 		cc2400_set(SYNCL, le.syncl);
1888:bluetooth_rxtx.c **** 		cc2400_set(SYNCH, le.synch);
1889:bluetooth_rxtx.c **** 
1890:bluetooth_rxtx.c **** 		if (do_hop)
1891:bluetooth_rxtx.c **** 			hop();
1892:bluetooth_rxtx.c **** 
1893:bluetooth_rxtx.c **** 		//  you can jam but you keep turning off the light 
1894:bluetooth_rxtx.c **** 		if (le_jam_count > 0) {
1895:bluetooth_rxtx.c **** #ifdef TX_ENABLE
1896:bluetooth_rxtx.c **** 			le_jam();
1897:bluetooth_rxtx.c **** #endif
1898:bluetooth_rxtx.c **** 			--le_jam_count;
1899:bluetooth_rxtx.c **** 		} else {
1900:bluetooth_rxtx.c **** 			/* RX mode */
1901:bluetooth_rxtx.c **** 			dma_init_le();
1902:bluetooth_rxtx.c **** 			dio_ssp_start();
1903:bluetooth_rxtx.c **** 
1904:bluetooth_rxtx.c **** 			if (restart_jamming) {
1905:bluetooth_rxtx.c **** 				cc2400_rx_sync(rbit(le.access_address));
1906:bluetooth_rxtx.c **** 				restart_jamming = 0;
1907:bluetooth_rxtx.c **** 			} else {
1908:bluetooth_rxtx.c **** 				// wait till we're in FSLOCK before strobing RX
1909:bluetooth_rxtx.c **** 				while (!(cc2400_status() & FS_LOCK));
1910:bluetooth_rxtx.c **** 				cc2400_strobe(SRX);
1911:bluetooth_rxtx.c **** 			}
1912:bluetooth_rxtx.c **** 		}
1913:bluetooth_rxtx.c **** 
1914:bluetooth_rxtx.c **** 		rx_tc = 0;
1915:bluetooth_rxtx.c **** 		rx_err = 0;
ARM GAS  /tmp/ccwF1FQu.s 			page 51


1916:bluetooth_rxtx.c **** 	}
1917:bluetooth_rxtx.c **** 
1918:bluetooth_rxtx.c **** cleanup:
1919:bluetooth_rxtx.c **** 
1920:bluetooth_rxtx.c **** 	// disable USB interrupts
1921:bluetooth_rxtx.c **** 	ICER0 = ICER0_ICE_USB;
1922:bluetooth_rxtx.c **** 
1923:bluetooth_rxtx.c **** 	// reset the radio completely
1924:bluetooth_rxtx.c **** 	cc2400_idle();
1925:bluetooth_rxtx.c **** 	dio_ssp_stop();
1926:bluetooth_rxtx.c **** 	cs_trigger_disable();
1927:bluetooth_rxtx.c **** }
1928:bluetooth_rxtx.c **** 
1929:bluetooth_rxtx.c **** 
1930:bluetooth_rxtx.c **** 
1931:bluetooth_rxtx.c **** /* low energy connection following
1932:bluetooth_rxtx.c ****  * follows a known AA around */
1933:bluetooth_rxtx.c **** int cb_follow_le() {
 741              		.loc 1 1933 20 is_stmt 1 view -0
 742              		.cfi_startproc
 743              		@ args = 0, pretend = 0, frame = 0
 744              		@ frame_needed = 0, uses_anonymous_args = 0
 745 0000 2DE9F047 		push	{r4, r5, r6, r7, r8, r9, r10, lr}
 746              		.cfi_def_cfa_offset 32
 747              		.cfi_offset 4, -32
 748              		.cfi_offset 5, -28
 749              		.cfi_offset 6, -24
 750              		.cfi_offset 7, -20
 751              		.cfi_offset 8, -16
 752              		.cfi_offset 9, -12
 753              		.cfi_offset 10, -8
 754              		.cfi_offset 14, -4
1934:bluetooth_rxtx.c **** 	int i, j, k;
 755              		.loc 1 1934 2 view .LVU237
1935:bluetooth_rxtx.c **** 	int idx = whitening_index[btle_channel_index(channel)];
 756              		.loc 1 1935 2 view .LVU238
 757              		.loc 1 1935 28 is_stmt 0 view .LVU239
 758 0004 3C4F     		ldr	r7, .L64
 759 0006 3D4E     		ldr	r6, .L64+4
 760 0008 B7F84C00 		ldrh	r0, [r7, #76]
 761              		.loc 1 1935 27 view .LVU240
 762 000c 3C4C     		ldr	r4, .L64+8
 763              		.loc 1 1935 28 view .LVU241
 764 000e 80B2     		uxth	r0, r0
 765 0010 FFF7FEFF 		bl	btle_channel_index
 766              	.LVL58:
1936:bluetooth_rxtx.c **** 
1937:bluetooth_rxtx.c **** 	u32 access_address = 0;
 767              		.loc 1 1937 6 view .LVU242
 768 0014 0022     		movs	r2, #0
 769 0016 3146     		mov	r1, r6
1938:bluetooth_rxtx.c **** 	for (i = 0; i < 31; ++i) {
 770              		.loc 1 1938 9 view .LVU243
 771 0018 1346     		mov	r3, r2
1935:bluetooth_rxtx.c **** 	int idx = whitening_index[btle_channel_index(channel)];
 772              		.loc 1 1935 6 view .LVU244
 773 001a 205C     		ldrb	r0, [r4, r0]	@ zero_extendqisi2
ARM GAS  /tmp/ccwF1FQu.s 			page 52


 774              	.LVL59:
1937:bluetooth_rxtx.c **** 	for (i = 0; i < 31; ++i) {
 775              		.loc 1 1937 2 is_stmt 1 view .LVU245
 776              		.loc 1 1938 2 view .LVU246
 777              		.loc 1 1938 14 view .LVU247
 778              	.L49:
1939:bluetooth_rxtx.c **** 		access_address >>= 1;
 779              		.loc 1 1939 3 discriminator 3 view .LVU248
1940:bluetooth_rxtx.c **** 		access_address |= (unpacked[i] << 31);
 780              		.loc 1 1940 3 discriminator 3 view .LVU249
 781              		.loc 1 1940 30 is_stmt 0 discriminator 3 view .LVU250
 782 001c 16F8015B 		ldrb	r5, [r6], #1	@ zero_extendqisi2
1938:bluetooth_rxtx.c **** 		access_address >>= 1;
 783              		.loc 1 1938 22 discriminator 3 view .LVU251
 784 0020 0133     		adds	r3, r3, #1
 785              		.loc 1 1940 34 discriminator 3 view .LVU252
 786 0022 ED07     		lsls	r5, r5, #31
1938:bluetooth_rxtx.c **** 		access_address >>= 1;
 787              		.loc 1 1938 2 discriminator 3 view .LVU253
 788 0024 1F2B     		cmp	r3, #31
 789              		.loc 1 1940 18 discriminator 3 view .LVU254
 790 0026 45EA5202 		orr	r2, r5, r2, lsr #1
 791              	.LVL60:
1938:bluetooth_rxtx.c **** 		access_address >>= 1;
 792              		.loc 1 1938 22 is_stmt 1 discriminator 3 view .LVU255
1938:bluetooth_rxtx.c **** 		access_address >>= 1;
 793              		.loc 1 1938 14 discriminator 3 view .LVU256
1938:bluetooth_rxtx.c **** 		access_address >>= 1;
 794              		.loc 1 1938 2 is_stmt 0 discriminator 3 view .LVU257
 795 002a F7D1     		bne	.L49
1941:bluetooth_rxtx.c **** 	}
1942:bluetooth_rxtx.c **** 
1943:bluetooth_rxtx.c **** 	for (i = 31; i < DMA_SIZE * 8 + 32; i++) {
1944:bluetooth_rxtx.c **** 		access_address >>= 1;
1945:bluetooth_rxtx.c **** 		access_address |= (unpacked[i] << 31);
1946:bluetooth_rxtx.c **** 		if (access_address == le.access_address) {
 796              		.loc 1 1946 27 view .LVU258
 797 002c 3E68     		ldr	r6, [r7]
 798              	.L60:
1944:bluetooth_rxtx.c **** 		access_address |= (unpacked[i] << 31);
 799              		.loc 1 1944 3 is_stmt 1 view .LVU259
 800              	.LVL61:
1945:bluetooth_rxtx.c **** 		if (access_address == le.access_address) {
 801              		.loc 1 1945 3 view .LVU260
1945:bluetooth_rxtx.c **** 		if (access_address == le.access_address) {
 802              		.loc 1 1945 30 is_stmt 0 view .LVU261
 803 002e CD5C     		ldrb	r5, [r1, r3]	@ zero_extendqisi2
1945:bluetooth_rxtx.c **** 		if (access_address == le.access_address) {
 804              		.loc 1 1945 34 view .LVU262
 805 0030 ED07     		lsls	r5, r5, #31
1945:bluetooth_rxtx.c **** 		if (access_address == le.access_address) {
 806              		.loc 1 1945 18 view .LVU263
 807 0032 45EA5202 		orr	r2, r5, r2, lsr #1
 808              	.LVL62:
 809              		.loc 1 1946 3 is_stmt 1 view .LVU264
 810              		.loc 1 1946 6 is_stmt 0 view .LVU265
 811 0036 9642     		cmp	r6, r2
ARM GAS  /tmp/ccwF1FQu.s 			page 53


 812 0038 58D1     		bne	.L50
 813              	.LBB9:
1947:bluetooth_rxtx.c **** 			for (j = 0; j < 46; ++j) {
1948:bluetooth_rxtx.c **** 				u8 byte = 0;
1949:bluetooth_rxtx.c **** 				for (k = 0; k < 8; k++) {
1950:bluetooth_rxtx.c **** 					int offset = k + (j * 8) + i - 31;
1951:bluetooth_rxtx.c **** 					if (offset >= DMA_SIZE*8*2) break;
1952:bluetooth_rxtx.c **** 					int bit = unpacked[offset];
1953:bluetooth_rxtx.c **** 					if (j >= 4) { // unwhiten data bytes
1954:bluetooth_rxtx.c **** 						bit ^= whitening[idx];
1955:bluetooth_rxtx.c **** 						idx = (idx + 1) % sizeof(whitening);
1956:bluetooth_rxtx.c **** 					}
1957:bluetooth_rxtx.c **** 					byte |= bit << k;
1958:bluetooth_rxtx.c **** 				}
1959:bluetooth_rxtx.c **** 				idle_rxbuf[j] = byte;
 814              		.loc 1 1959 15 view .LVU266
 815 003a 324E     		ldr	r6, .L64+12
 816 003c 1F3B     		subs	r3, r3, #31
 817 003e 0B44     		add	r3, r3, r1
 818              	.LBB10:
1955:bluetooth_rxtx.c **** 					}
 819              		.loc 1 1955 23 view .LVU267
 820 0040 4FF07F09 		mov	r9, #127
 821              	.LBE10:
 822              	.LBE9:
1947:bluetooth_rxtx.c **** 			for (j = 0; j < 46; ++j) {
 823              		.loc 1 1947 11 view .LVU268
 824 0044 0021     		movs	r1, #0
 825 0046 3546     		mov	r5, r6
 826              	.LVL63:
 827              	.L51:
 828              	.LBB14:
1949:bluetooth_rxtx.c **** 					int offset = k + (j * 8) + i - 31;
 829              		.loc 1 1949 17 is_stmt 1 view .LVU269
1948:bluetooth_rxtx.c **** 				for (k = 0; k < 8; k++) {
 830              		.loc 1 1948 8 is_stmt 0 view .LVU270
 831 0048 4FF0000E 		mov	lr, #0
 832              	.LBE14:
1938:bluetooth_rxtx.c **** 		access_address >>= 1;
 833              		.loc 1 1938 9 view .LVU271
 834 004c 9846     		mov	r8, r3
 835              	.LBB15:
1949:bluetooth_rxtx.c **** 					int offset = k + (j * 8) + i - 31;
 836              		.loc 1 1949 12 view .LVU272
 837 004e F446     		mov	ip, lr
 838              	.LVL64:
 839              	.L54:
 840              	.LBB11:
1950:bluetooth_rxtx.c **** 					if (offset >= DMA_SIZE*8*2) break;
 841              		.loc 1 1950 6 is_stmt 1 view .LVU273
1951:bluetooth_rxtx.c **** 					int bit = unpacked[offset];
 842              		.loc 1 1951 6 view .LVU274
1952:bluetooth_rxtx.c **** 					if (j >= 4) { // unwhiten data bytes
 843              		.loc 1 1952 6 view .LVU275
1953:bluetooth_rxtx.c **** 						bit ^= whitening[idx];
 844              		.loc 1 1953 9 is_stmt 0 view .LVU276
 845 0050 0329     		cmp	r1, #3
ARM GAS  /tmp/ccwF1FQu.s 			page 54


1952:bluetooth_rxtx.c **** 					if (j >= 4) { // unwhiten data bytes
 846              		.loc 1 1952 24 view .LVU277
 847 0052 18F8012B 		ldrb	r2, [r8], #1	@ zero_extendqisi2
 848              	.LVL65:
1953:bluetooth_rxtx.c **** 						bit ^= whitening[idx];
 849              		.loc 1 1953 6 is_stmt 1 view .LVU278
1953:bluetooth_rxtx.c **** 						bit ^= whitening[idx];
 850              		.loc 1 1953 9 is_stmt 0 view .LVU279
 851 0056 0CDD     		ble	.L53
1954:bluetooth_rxtx.c **** 						idx = (idx + 1) % sizeof(whitening);
 852              		.loc 1 1954 7 is_stmt 1 view .LVU280
1954:bluetooth_rxtx.c **** 						idx = (idx + 1) % sizeof(whitening);
 853              		.loc 1 1954 23 is_stmt 0 view .LVU281
 854 0058 04EB000A 		add	r10, r4, r0
1954:bluetooth_rxtx.c **** 						idx = (idx + 1) % sizeof(whitening);
 855              		.loc 1 1954 11 view .LVU282
 856 005c 9AF828A0 		ldrb	r10, [r10, #40]	@ zero_extendqisi2
1955:bluetooth_rxtx.c **** 					}
 857              		.loc 1 1955 18 view .LVU283
 858 0060 0130     		adds	r0, r0, #1
 859              	.LVL66:
1954:bluetooth_rxtx.c **** 						idx = (idx + 1) % sizeof(whitening);
 860              		.loc 1 1954 11 view .LVU284
 861 0062 82EA0A02 		eor	r2, r2, r10
 862              	.LVL67:
1955:bluetooth_rxtx.c **** 					}
 863              		.loc 1 1955 7 is_stmt 1 view .LVU285
1955:bluetooth_rxtx.c **** 					}
 864              		.loc 1 1955 23 is_stmt 0 view .LVU286
 865 0066 B0FBF9FA 		udiv	r10, r0, r9
 866 006a CAEBCA1A 		rsb	r10, r10, r10, lsl #7
 867 006e A0EB0A00 		sub	r0, r0, r10
 868              	.LVL68:
 869              	.L53:
1957:bluetooth_rxtx.c **** 				}
 870              		.loc 1 1957 6 is_stmt 1 discriminator 2 view .LVU287
1957:bluetooth_rxtx.c **** 				}
 871              		.loc 1 1957 18 is_stmt 0 discriminator 2 view .LVU288
 872 0072 02FA0CF2 		lsl	r2, r2, ip
 873              	.LVL69:
1957:bluetooth_rxtx.c **** 				}
 874              		.loc 1 1957 18 discriminator 2 view .LVU289
 875              	.LBE11:
1949:bluetooth_rxtx.c **** 					int offset = k + (j * 8) + i - 31;
 876              		.loc 1 1949 25 discriminator 2 view .LVU290
 877 0076 0CF1010C 		add	ip, ip, #1
 878              	.LVL70:
 879              	.LBB12:
1957:bluetooth_rxtx.c **** 				}
 880              		.loc 1 1957 11 discriminator 2 view .LVU291
 881 007a 42EA0E02 		orr	r2, r2, lr
 882              	.LBE12:
1949:bluetooth_rxtx.c **** 					int offset = k + (j * 8) + i - 31;
 883              		.loc 1 1949 5 discriminator 2 view .LVU292
 884 007e BCF1080F 		cmp	ip, #8
 885              	.LBB13:
1957:bluetooth_rxtx.c **** 				}
ARM GAS  /tmp/ccwF1FQu.s 			page 55


 886              		.loc 1 1957 11 discriminator 2 view .LVU293
 887 0082 5FFA82FE 		uxtb	lr, r2
 888              	.LVL71:
1957:bluetooth_rxtx.c **** 				}
 889              		.loc 1 1957 11 discriminator 2 view .LVU294
 890              	.LBE13:
1949:bluetooth_rxtx.c **** 					int offset = k + (j * 8) + i - 31;
 891              		.loc 1 1949 24 is_stmt 1 discriminator 2 view .LVU295
1949:bluetooth_rxtx.c **** 					int offset = k + (j * 8) + i - 31;
 892              		.loc 1 1949 17 discriminator 2 view .LVU296
1949:bluetooth_rxtx.c **** 					int offset = k + (j * 8) + i - 31;
 893              		.loc 1 1949 5 is_stmt 0 discriminator 2 view .LVU297
 894 0086 E3D1     		bne	.L54
 895              		.loc 1 1959 5 is_stmt 1 discriminator 2 view .LVU298
 896              		.loc 1 1959 15 is_stmt 0 discriminator 2 view .LVU299
 897 0088 3268     		ldr	r2, [r6]
 898 008a 0833     		adds	r3, r3, #8
 899              		.loc 1 1959 19 discriminator 2 view .LVU300
 900 008c 02F801E0 		strb	lr, [r2, r1]
 901              	.LBE15:
1947:bluetooth_rxtx.c **** 				u8 byte = 0;
 902              		.loc 1 1947 24 is_stmt 1 discriminator 2 view .LVU301
 903 0090 0131     		adds	r1, r1, #1
 904              	.LVL72:
1947:bluetooth_rxtx.c **** 				u8 byte = 0;
 905              		.loc 1 1947 16 discriminator 2 view .LVU302
1947:bluetooth_rxtx.c **** 				u8 byte = 0;
 906              		.loc 1 1947 4 is_stmt 0 discriminator 2 view .LVU303
 907 0092 2E29     		cmp	r1, #46
 908 0094 D8D1     		bne	.L51
1960:bluetooth_rxtx.c **** 			}
1961:bluetooth_rxtx.c **** 
1962:bluetooth_rxtx.c **** 			// verify CRC
1963:bluetooth_rxtx.c **** 			if (le.crc_verify) {
 909              		.loc 1 1963 4 is_stmt 1 view .LVU304
 910              		.loc 1 1963 7 is_stmt 0 view .LVU305
 911 0096 3B69     		ldr	r3, [r7, #16]
 912 0098 6BB9     		cbnz	r3, .L56
 913              	.LVL73:
 914              	.L59:
1964:bluetooth_rxtx.c **** 				int len		 = (idle_rxbuf[5] & 0x3f) + 2;
1965:bluetooth_rxtx.c **** 				u32 calc_crc = btle_crcgen_lut(le.crc_init_reversed, (uint8_t*)idle_rxbuf + 4, len);
1966:bluetooth_rxtx.c **** 				u32 wire_crc = (idle_rxbuf[4+len+2] << 16)
1967:bluetooth_rxtx.c **** 							 | (idle_rxbuf[4+len+1] << 8)
1968:bluetooth_rxtx.c **** 							 |  idle_rxbuf[4+len+0];
1969:bluetooth_rxtx.c **** 				if (calc_crc != wire_crc) // skip packets with a bad CRC
1970:bluetooth_rxtx.c **** 					break;
1971:bluetooth_rxtx.c **** 			}
1972:bluetooth_rxtx.c **** 
1973:bluetooth_rxtx.c **** 			// send to PC
1974:bluetooth_rxtx.c **** 			enqueue(LE_PACKET, (uint8_t*)idle_rxbuf);
 915              		.loc 1 1974 4 is_stmt 1 view .LVU306
 916 009a 0120     		movs	r0, #1
 917 009c 2968     		ldr	r1, [r5]
 918 009e FFF7FEFF 		bl	enqueue
 919              	.LVL74:
1975:bluetooth_rxtx.c **** 			RXLED_SET;
ARM GAS  /tmp/ccwF1FQu.s 			page 56


 920              		.loc 1 1975 4 view .LVU307
 921 00a2 1022     		movs	r2, #16
 922 00a4 184B     		ldr	r3, .L64+16
 923 00a6 1A60     		str	r2, [r3]
1976:bluetooth_rxtx.c **** 
1977:bluetooth_rxtx.c **** 			packet_cb((uint8_t*)idle_rxbuf);
 924              		.loc 1 1977 4 view .LVU308
 925 00a8 184B     		ldr	r3, .L64+20
 926 00aa 2868     		ldr	r0, [r5]
 927 00ac 9B69     		ldr	r3, [r3, #24]
 928 00ae 9847     		blx	r3
 929              	.LVL75:
1978:bluetooth_rxtx.c **** 
1979:bluetooth_rxtx.c **** 			break;
 930              		.loc 1 1979 4 view .LVU309
 931              	.L57:
1980:bluetooth_rxtx.c **** 		}
1981:bluetooth_rxtx.c **** 	}
1982:bluetooth_rxtx.c **** 
1983:bluetooth_rxtx.c **** 	return 1;
 932              		.loc 1 1983 2 view .LVU310
1984:bluetooth_rxtx.c **** }
 933              		.loc 1 1984 1 is_stmt 0 view .LVU311
 934 00b0 0120     		movs	r0, #1
 935 00b2 BDE8F087 		pop	{r4, r5, r6, r7, r8, r9, r10, pc}
 936              	.LVL76:
 937              	.L56:
 938              	.LBB16:
1964:bluetooth_rxtx.c **** 				u32 calc_crc = btle_crcgen_lut(le.crc_init_reversed, (uint8_t*)idle_rxbuf + 4, len);
 939              		.loc 1 1964 5 is_stmt 1 view .LVU312
1964:bluetooth_rxtx.c **** 				u32 calc_crc = btle_crcgen_lut(le.crc_init_reversed, (uint8_t*)idle_rxbuf + 4, len);
 940              		.loc 1 1964 28 is_stmt 0 view .LVU313
 941 00b6 3368     		ldr	r3, [r6]
1965:bluetooth_rxtx.c **** 				u32 wire_crc = (idle_rxbuf[4+len+2] << 16)
 942              		.loc 1 1965 20 view .LVU314
 943 00b8 F868     		ldr	r0, [r7, #12]
 944              	.LVL77:
1964:bluetooth_rxtx.c **** 				u32 calc_crc = btle_crcgen_lut(le.crc_init_reversed, (uint8_t*)idle_rxbuf + 4, len);
 945              		.loc 1 1964 28 view .LVU315
 946 00ba 5C79     		ldrb	r4, [r3, #5]	@ zero_extendqisi2
1965:bluetooth_rxtx.c **** 				u32 wire_crc = (idle_rxbuf[4+len+2] << 16)
 947              		.loc 1 1965 58 view .LVU316
 948 00bc 3168     		ldr	r1, [r6]
 949              	.LVL78:
1965:bluetooth_rxtx.c **** 				u32 wire_crc = (idle_rxbuf[4+len+2] << 16)
 950              		.loc 1 1965 58 view .LVU317
 951 00be 04F03F04 		and	r4, r4, #63
 952              	.LVL79:
1965:bluetooth_rxtx.c **** 				u32 wire_crc = (idle_rxbuf[4+len+2] << 16)
 953              		.loc 1 1965 5 is_stmt 1 view .LVU318
1965:bluetooth_rxtx.c **** 				u32 wire_crc = (idle_rxbuf[4+len+2] << 16)
 954              		.loc 1 1965 20 is_stmt 0 view .LVU319
 955 00c2 A21C     		adds	r2, r4, #2
 956              	.LVL80:
1965:bluetooth_rxtx.c **** 				u32 wire_crc = (idle_rxbuf[4+len+2] << 16)
 957              		.loc 1 1965 20 view .LVU320
 958 00c4 0431     		adds	r1, r1, #4
ARM GAS  /tmp/ccwF1FQu.s 			page 57


 959 00c6 FFF7FEFF 		bl	btle_crcgen_lut
 960              	.LVL81:
1966:bluetooth_rxtx.c **** 							 | (idle_rxbuf[4+len+1] << 8)
 961              		.loc 1 1966 5 is_stmt 1 view .LVU321
1966:bluetooth_rxtx.c **** 							 | (idle_rxbuf[4+len+1] << 8)
 962              		.loc 1 1966 31 is_stmt 0 view .LVU322
 963 00ca 3268     		ldr	r2, [r6]
 964 00cc 04F10803 		add	r3, r4, #8
 965 00d0 D15C     		ldrb	r1, [r2, r3]	@ zero_extendqisi2
1967:bluetooth_rxtx.c **** 							 |  idle_rxbuf[4+len+0];
 966              		.loc 1 1967 22 view .LVU323
 967 00d2 3268     		ldr	r2, [r6]
 968 00d4 E31D     		adds	r3, r4, #7
 969 00d6 D35C     		ldrb	r3, [r2, r3]	@ zero_extendqisi2
1968:bluetooth_rxtx.c **** 				if (calc_crc != wire_crc) // skip packets with a bad CRC
 970              		.loc 1 1968 22 view .LVU324
 971 00d8 3268     		ldr	r2, [r6]
1968:bluetooth_rxtx.c **** 				if (calc_crc != wire_crc) // skip packets with a bad CRC
 972              		.loc 1 1968 24 view .LVU325
 973 00da 0634     		adds	r4, r4, #6
 974              	.LVL82:
1968:bluetooth_rxtx.c **** 				if (calc_crc != wire_crc) // skip packets with a bad CRC
 975              		.loc 1 1968 22 view .LVU326
 976 00dc 125D     		ldrb	r2, [r2, r4]	@ zero_extendqisi2
 977              	.LVL83:
1969:bluetooth_rxtx.c **** 					break;
 978              		.loc 1 1969 5 is_stmt 1 view .LVU327
1967:bluetooth_rxtx.c **** 							 |  idle_rxbuf[4+len+0];
 979              		.loc 1 1967 32 is_stmt 0 view .LVU328
 980 00de 1B02     		lsls	r3, r3, #8
 981              	.LVL84:
1967:bluetooth_rxtx.c **** 							 |  idle_rxbuf[4+len+0];
 982              		.loc 1 1967 9 view .LVU329
 983 00e0 43EA0143 		orr	r3, r3, r1, lsl #16
1968:bluetooth_rxtx.c **** 				if (calc_crc != wire_crc) // skip packets with a bad CRC
 984              		.loc 1 1968 9 view .LVU330
 985 00e4 1343     		orrs	r3, r3, r2
1969:bluetooth_rxtx.c **** 					break;
 986              		.loc 1 1969 8 view .LVU331
 987 00e6 9842     		cmp	r0, r3
 988 00e8 E2D1     		bne	.L57
 989 00ea D6E7     		b	.L59
 990              	.LVL85:
 991              	.L50:
1969:bluetooth_rxtx.c **** 					break;
 992              		.loc 1 1969 8 view .LVU332
 993              	.LBE16:
1943:bluetooth_rxtx.c **** 		access_address >>= 1;
 994              		.loc 1 1943 38 is_stmt 1 discriminator 2 view .LVU333
1943:bluetooth_rxtx.c **** 		access_address >>= 1;
 995              		.loc 1 1943 39 is_stmt 0 discriminator 2 view .LVU334
 996 00ec 0133     		adds	r3, r3, #1
 997              	.LVL86:
1943:bluetooth_rxtx.c **** 		access_address >>= 1;
 998              		.loc 1 1943 15 is_stmt 1 discriminator 2 view .LVU335
1943:bluetooth_rxtx.c **** 		access_address >>= 1;
 999              		.loc 1 1943 2 is_stmt 0 discriminator 2 view .LVU336
ARM GAS  /tmp/ccwF1FQu.s 			page 58


 1000 00ee B3F5D87F 		cmp	r3, #432
 1001 00f2 9CD1     		bne	.L60
 1002 00f4 DCE7     		b	.L57
 1003              	.L65:
 1004 00f6 00BF     		.align	2
 1005              	.L64:
 1006 00f8 00000000 		.word	.LANCHOR0
 1007 00fc 00000000 		.word	unpacked
 1008 0100 00000000 		.word	.LANCHOR2
 1009 0104 00000000 		.word	idle_rxbuf
 1010 0108 38C00920 		.word	537509944
 1011 010c 00000000 		.word	.LANCHOR1
 1012              		.cfi_endproc
 1013              	.LFE24:
 1015              		.section	.text.connection_follow_cb,"ax",%progbits
 1016              		.align	1
 1017              		.global	connection_follow_cb
 1018              		.syntax unified
 1019              		.thumb
 1020              		.thumb_func
 1021              		.fpu softvfp
 1023              	connection_follow_cb:
 1024              	.LVL87:
 1025              	.LFB25:
1985:bluetooth_rxtx.c **** 
1986:bluetooth_rxtx.c **** /**
1987:bluetooth_rxtx.c ****  * Called when we receive a packet in connection following mode.
1988:bluetooth_rxtx.c ****  */
1989:bluetooth_rxtx.c **** void connection_follow_cb(u8 *packet) {
 1026              		.loc 1 1989 39 is_stmt 1 view -0
 1027              		.cfi_startproc
 1028              		@ args = 0, pretend = 0, frame = 0
 1029              		@ frame_needed = 0, uses_anonymous_args = 0
 1030              		.loc 1 1989 39 is_stmt 0 view .LVU338
 1031 0000 38B5     		push	{r3, r4, r5, lr}
 1032              		.cfi_def_cfa_offset 16
 1033              		.cfi_offset 3, -16
 1034              		.cfi_offset 4, -12
 1035              		.cfi_offset 5, -8
 1036              		.cfi_offset 14, -4
1990:bluetooth_rxtx.c **** 	int i;
 1037              		.loc 1 1990 2 is_stmt 1 view .LVU339
1991:bluetooth_rxtx.c **** 	u32 aa = 0;
 1038              		.loc 1 1991 2 view .LVU340
 1039              	.LVL88:
1992:bluetooth_rxtx.c **** 
1993:bluetooth_rxtx.c **** #define ADV_ADDRESS_IDX 0
1994:bluetooth_rxtx.c **** #define HEADER_IDX 4
1995:bluetooth_rxtx.c **** #define DATA_LEN_IDX 5
1996:bluetooth_rxtx.c **** #define DATA_START_IDX 6
1997:bluetooth_rxtx.c **** 
1998:bluetooth_rxtx.c **** 	// u8 *adv_addr = &packet[ADV_ADDRESS_IDX];
1999:bluetooth_rxtx.c **** 	u8 header = packet[HEADER_IDX];
 1040              		.loc 1 1999 2 view .LVU341
2000:bluetooth_rxtx.c **** 	u8 *data_len = &packet[DATA_LEN_IDX];
 1041              		.loc 1 2000 2 view .LVU342
2001:bluetooth_rxtx.c **** 	u8 *data = &packet[DATA_START_IDX];
ARM GAS  /tmp/ccwF1FQu.s 			page 59


 1042              		.loc 1 2001 2 view .LVU343
2002:bluetooth_rxtx.c **** 	// u8 *crc = &packet[DATA_START_IDX + *data_len];
2003:bluetooth_rxtx.c **** 
2004:bluetooth_rxtx.c **** 	if (le.link_state == LINK_CONN_PENDING) {
 1043              		.loc 1 2004 2 view .LVU344
 1044              		.loc 1 2004 8 is_stmt 0 view .LVU345
 1045 0002 564B     		ldr	r3, .L81
1989:bluetooth_rxtx.c **** 	int i;
 1046              		.loc 1 1989 39 view .LVU346
 1047 0004 0546     		mov	r5, r0
 1048              		.loc 1 2004 8 view .LVU347
 1049 0006 1A7D     		ldrb	r2, [r3, #20]	@ zero_extendqisi2
 1050 0008 1C46     		mov	r4, r3
 1051              		.loc 1 2004 5 view .LVU348
 1052 000a 022A     		cmp	r2, #2
 1053 000c 11D1     		bne	.L67
2005:bluetooth_rxtx.c **** 		// We received a packet in the connection pending state, so now the device *should* be connected
2006:bluetooth_rxtx.c **** 		le.link_state = LINK_CONNECTED;
 1054              		.loc 1 2006 3 is_stmt 1 view .LVU349
 1055              		.loc 1 2006 17 is_stmt 0 view .LVU350
 1056 000e 0322     		movs	r2, #3
 1057 0010 1A75     		strb	r2, [r3, #20]
 1058              	.LVL89:
2007:bluetooth_rxtx.c **** 		le.conn_epoch = clkn;
 1059              		.loc 1 2007 3 is_stmt 1 view .LVU351
 1060              		.loc 1 2007 17 is_stmt 0 view .LVU352
 1061 0012 534A     		ldr	r2, .L81+4
 1062 0014 1268     		ldr	r2, [r2]
 1063 0016 9A61     		str	r2, [r3, #24]
2008:bluetooth_rxtx.c **** 		le.interval_timer = le.conn_interval - 1;
 1064              		.loc 1 2008 3 is_stmt 1 view .LVU353
 1065              		.loc 1 2008 40 is_stmt 0 view .LVU354
 1066 0018 DA8B     		ldrh	r2, [r3, #30]
 1067 001a 013A     		subs	r2, r2, #1
 1068 001c 92B2     		uxth	r2, r2
 1069              		.loc 1 2008 21 view .LVU355
 1070 001e 9A83     		strh	r2, [r3, #28]	@ movhi
2009:bluetooth_rxtx.c **** 		le.conn_count = 0;
 1071              		.loc 1 2009 3 is_stmt 1 view .LVU356
 1072              		.loc 1 2009 17 is_stmt 0 view .LVU357
 1073 0020 0022     		movs	r2, #0
 1074 0022 1A84     		strh	r2, [r3, #32]	@ movhi
2010:bluetooth_rxtx.c **** 		le.update_pending = 0;
 1075              		.loc 1 2010 3 is_stmt 1 view .LVU358
 1076              		.loc 1 2010 21 is_stmt 0 view .LVU359
 1077 0024 9A62     		str	r2, [r3, #40]
2011:bluetooth_rxtx.c **** 
2012:bluetooth_rxtx.c **** 		// hue hue hue
2013:bluetooth_rxtx.c **** 		if (jam_mode != JAM_NONE)
 1078              		.loc 1 2013 3 is_stmt 1 view .LVU360
 1079              		.loc 1 2013 16 is_stmt 0 view .LVU361
 1080 0026 4F4B     		ldr	r3, .L81+8
 1081 0028 DA7C     		ldrb	r2, [r3, #19]	@ zero_extendqisi2
 1082              		.loc 1 2013 6 view .LVU362
 1083 002a 0AB1     		cbz	r2, .L66
2014:bluetooth_rxtx.c **** 			le_jam_count = JAM_COUNT_DEFAULT;
 1084              		.loc 1 2014 4 is_stmt 1 view .LVU363
ARM GAS  /tmp/ccwF1FQu.s 			page 60


 1085              		.loc 1 2014 17 is_stmt 0 view .LVU364
 1086 002c 2822     		movs	r2, #40
 1087 002e DA61     		str	r2, [r3, #28]
 1088              	.LVL90:
 1089              	.L66:
2015:bluetooth_rxtx.c **** 
2016:bluetooth_rxtx.c **** 	} else if (le.link_state == LINK_CONNECTED) {
2017:bluetooth_rxtx.c **** 		u8 llid =  header & 0x03;
2018:bluetooth_rxtx.c **** 
2019:bluetooth_rxtx.c **** 		// Apply any connection parameter update if necessary
2020:bluetooth_rxtx.c **** 		if (le.update_pending && le.conn_count == le.update_instant) {
2021:bluetooth_rxtx.c **** 			// This is the first packet received in the connection interval for which the new parameters app
2022:bluetooth_rxtx.c **** 			le.conn_epoch = clkn;
2023:bluetooth_rxtx.c **** 			le.conn_interval = le.interval_update;
2024:bluetooth_rxtx.c **** 			le.interval_timer = le.interval_update - 1;
2025:bluetooth_rxtx.c **** 			le.win_size = le.win_size_update;
2026:bluetooth_rxtx.c **** 			le.win_offset = le.win_offset_update;
2027:bluetooth_rxtx.c **** 			le.update_pending = 0;
2028:bluetooth_rxtx.c **** 		}
2029:bluetooth_rxtx.c **** 
2030:bluetooth_rxtx.c **** 		if (llid == 0x03 && data[0] == 0x00) {
2031:bluetooth_rxtx.c **** 			// This is a CONNECTION_UPDATE_REQ.
2032:bluetooth_rxtx.c **** 			// The host is changing the connection parameters.
2033:bluetooth_rxtx.c **** 			le.win_size_update = packet[7];
2034:bluetooth_rxtx.c **** 			le.win_offset_update = packet[8] + ((u16)packet[9] << 8);
2035:bluetooth_rxtx.c **** 			le.interval_update = packet[10] + ((u16)packet[11] << 8);
2036:bluetooth_rxtx.c **** 			le.update_instant = packet[16] + ((u16)packet[17] << 8);
2037:bluetooth_rxtx.c **** 			if (le.update_instant - le.conn_count < 32767)
2038:bluetooth_rxtx.c **** 				le.update_pending = 1;
2039:bluetooth_rxtx.c **** 		}
2040:bluetooth_rxtx.c **** 
2041:bluetooth_rxtx.c **** 	} else if (le.link_state == LINK_LISTENING) {
2042:bluetooth_rxtx.c **** 		u8 pkt_type = packet[4] & 0x0F;
2043:bluetooth_rxtx.c **** 		if (pkt_type == 0x05) {
2044:bluetooth_rxtx.c **** 			uint16_t conn_interval;
2045:bluetooth_rxtx.c **** 
2046:bluetooth_rxtx.c **** 			// ignore packets with incorrect length
2047:bluetooth_rxtx.c **** 			if (*data_len != 34)
2048:bluetooth_rxtx.c **** 				return;
2049:bluetooth_rxtx.c **** 
2050:bluetooth_rxtx.c **** 			// conn interval must be [7.5 ms, 4.0s] in units of 1.25 ms
2051:bluetooth_rxtx.c **** 			conn_interval = (packet[29] << 8) | packet[28];
2052:bluetooth_rxtx.c **** 			if (conn_interval < 6 || conn_interval > 3200)
2053:bluetooth_rxtx.c **** 				return;
2054:bluetooth_rxtx.c **** 
2055:bluetooth_rxtx.c **** 			// This is a connect packet
2056:bluetooth_rxtx.c **** 			// if we have a target, see if InitA or AdvA matches
2057:bluetooth_rxtx.c **** 			if (le.target_set &&
2058:bluetooth_rxtx.c **** 				memcmp(le.target, &packet[6], 6) &&  // Target address doesn't match Initiator.
2059:bluetooth_rxtx.c **** 				memcmp(le.target, &packet[12], 6)) {  // Target address doesn't match Advertiser.
2060:bluetooth_rxtx.c **** 				return;
2061:bluetooth_rxtx.c **** 			}
2062:bluetooth_rxtx.c **** 
2063:bluetooth_rxtx.c **** 			le.link_state = LINK_CONN_PENDING;
2064:bluetooth_rxtx.c **** 			le.crc_verify = 0; // we will drop many packets if we attempt to filter by CRC
2065:bluetooth_rxtx.c **** 
2066:bluetooth_rxtx.c **** 			for (i = 0; i < 4; ++i)
ARM GAS  /tmp/ccwF1FQu.s 			page 61


2067:bluetooth_rxtx.c **** 				aa |= packet[18+i] << (i*8);
2068:bluetooth_rxtx.c **** 			le_set_access_address(aa);
2069:bluetooth_rxtx.c **** 
2070:bluetooth_rxtx.c **** #define CRC_INIT (2+4+6+6+4)
2071:bluetooth_rxtx.c **** 			le.crc_init = (packet[CRC_INIT+2] << 16)
2072:bluetooth_rxtx.c **** 						| (packet[CRC_INIT+1] << 8)
2073:bluetooth_rxtx.c **** 						|  packet[CRC_INIT+0];
2074:bluetooth_rxtx.c **** 			le.crc_init_reversed = rbit(le.crc_init);
2075:bluetooth_rxtx.c **** 
2076:bluetooth_rxtx.c **** #define WIN_SIZE (2+4+6+6+4+3)
2077:bluetooth_rxtx.c **** 			le.win_size = packet[WIN_SIZE];
2078:bluetooth_rxtx.c **** 
2079:bluetooth_rxtx.c **** #define WIN_OFFSET (2+4+6+6+4+3+1)
2080:bluetooth_rxtx.c **** 			le.win_offset = packet[WIN_OFFSET];
2081:bluetooth_rxtx.c **** 
2082:bluetooth_rxtx.c **** #define CONN_INTERVAL (2+4+6+6+4+3+1+2)
2083:bluetooth_rxtx.c **** 			le.conn_interval = (packet[CONN_INTERVAL+1] << 8)
2084:bluetooth_rxtx.c **** 							 |  packet[CONN_INTERVAL+0];
2085:bluetooth_rxtx.c **** 
2086:bluetooth_rxtx.c **** #define CHANNEL_INC (2+4+6+6+4+3+1+2+2+2+2+5)
2087:bluetooth_rxtx.c **** 			le.channel_increment = packet[CHANNEL_INC] & 0x1f;
2088:bluetooth_rxtx.c **** 			le.channel_idx = le.channel_increment;
2089:bluetooth_rxtx.c **** 
2090:bluetooth_rxtx.c **** 			// Hop to the initial channel immediately
2091:bluetooth_rxtx.c **** 			do_hop = 1;
2092:bluetooth_rxtx.c **** 		}
2093:bluetooth_rxtx.c **** 	}
2094:bluetooth_rxtx.c **** }
 1090              		.loc 1 2094 1 view .LVU365
 1091 0030 38BD     		pop	{r3, r4, r5, pc}
 1092              	.LVL91:
 1093              	.L67:
2016:bluetooth_rxtx.c **** 		u8 llid =  header & 0x03;
 1094              		.loc 1 2016 12 view .LVU366
 1095 0032 032A     		cmp	r2, #3
1999:bluetooth_rxtx.c **** 	u8 *data_len = &packet[DATA_LEN_IDX];
 1096              		.loc 1 1999 5 view .LVU367
 1097 0034 0379     		ldrb	r3, [r0, #4]	@ zero_extendqisi2
2016:bluetooth_rxtx.c **** 		u8 llid =  header & 0x03;
 1098              		.loc 1 2016 9 is_stmt 1 view .LVU368
2016:bluetooth_rxtx.c **** 		u8 llid =  header & 0x03;
 1099              		.loc 1 2016 12 is_stmt 0 view .LVU369
 1100 0036 3AD1     		bne	.L70
 1101              	.LBB17:
2017:bluetooth_rxtx.c **** 
 1102              		.loc 1 2017 3 is_stmt 1 view .LVU370
2020:bluetooth_rxtx.c **** 			// This is the first packet received in the connection interval for which the new parameters app
 1103              		.loc 1 2020 6 is_stmt 0 view .LVU371
 1104 0038 A26A     		ldr	r2, [r4, #40]
2017:bluetooth_rxtx.c **** 
 1105              		.loc 1 2017 6 view .LVU372
 1106 003a 03F00303 		and	r3, r3, #3
 1107              	.LVL92:
2020:bluetooth_rxtx.c **** 			// This is the first packet received in the connection interval for which the new parameters app
 1108              		.loc 1 2020 3 is_stmt 1 view .LVU373
2020:bluetooth_rxtx.c **** 			// This is the first packet received in the connection interval for which the new parameters app
 1109              		.loc 1 2020 6 is_stmt 0 view .LVU374
ARM GAS  /tmp/ccwF1FQu.s 			page 62


 1110 003e A2B1     		cbz	r2, .L71
2020:bluetooth_rxtx.c **** 			// This is the first packet received in the connection interval for which the new parameters app
 1111              		.loc 1 2020 30 discriminator 1 view .LVU375
 1112 0040 228C     		ldrh	r2, [r4, #32]
2020:bluetooth_rxtx.c **** 			// This is the first packet received in the connection interval for which the new parameters app
 1113              		.loc 1 2020 25 discriminator 1 view .LVU376
 1114 0042 A18D     		ldrh	r1, [r4, #44]
2020:bluetooth_rxtx.c **** 			// This is the first packet received in the connection interval for which the new parameters app
 1115              		.loc 1 2020 30 discriminator 1 view .LVU377
 1116 0044 92B2     		uxth	r2, r2
2020:bluetooth_rxtx.c **** 			// This is the first packet received in the connection interval for which the new parameters app
 1117              		.loc 1 2020 25 discriminator 1 view .LVU378
 1118 0046 9142     		cmp	r1, r2
 1119 0048 0FD1     		bne	.L71
2022:bluetooth_rxtx.c **** 			le.conn_interval = le.interval_update;
 1120              		.loc 1 2022 4 is_stmt 1 view .LVU379
2022:bluetooth_rxtx.c **** 			le.conn_interval = le.interval_update;
 1121              		.loc 1 2022 18 is_stmt 0 view .LVU380
 1122 004a 454A     		ldr	r2, .L81+4
 1123 004c 1268     		ldr	r2, [r2]
 1124 004e A261     		str	r2, [r4, #24]
 1125              	.LVL93:
2023:bluetooth_rxtx.c **** 			le.interval_timer = le.interval_update - 1;
 1126              		.loc 1 2023 4 is_stmt 1 view .LVU381
2023:bluetooth_rxtx.c **** 			le.interval_timer = le.interval_update - 1;
 1127              		.loc 1 2023 25 is_stmt 0 view .LVU382
 1128 0050 E28D     		ldrh	r2, [r4, #46]
2023:bluetooth_rxtx.c **** 			le.interval_timer = le.interval_update - 1;
 1129              		.loc 1 2023 21 view .LVU383
 1130 0052 E283     		strh	r2, [r4, #30]	@ movhi
2024:bluetooth_rxtx.c **** 			le.win_size = le.win_size_update;
 1131              		.loc 1 2024 4 is_stmt 1 view .LVU384
2024:bluetooth_rxtx.c **** 			le.win_size = le.win_size_update;
 1132              		.loc 1 2024 43 is_stmt 0 view .LVU385
 1133 0054 013A     		subs	r2, r2, #1
 1134 0056 92B2     		uxth	r2, r2
2024:bluetooth_rxtx.c **** 			le.win_size = le.win_size_update;
 1135              		.loc 1 2024 22 view .LVU386
 1136 0058 A283     		strh	r2, [r4, #28]	@ movhi
2025:bluetooth_rxtx.c **** 			le.win_offset = le.win_offset_update;
 1137              		.loc 1 2025 4 is_stmt 1 view .LVU387
2025:bluetooth_rxtx.c **** 			le.win_offset = le.win_offset_update;
 1138              		.loc 1 2025 16 is_stmt 0 view .LVU388
 1139 005a 94F83020 		ldrb	r2, [r4, #48]	@ zero_extendqisi2
 1140 005e 84F82220 		strb	r2, [r4, #34]
2026:bluetooth_rxtx.c **** 			le.update_pending = 0;
 1141              		.loc 1 2026 4 is_stmt 1 view .LVU389
2026:bluetooth_rxtx.c **** 			le.update_pending = 0;
 1142              		.loc 1 2026 18 is_stmt 0 view .LVU390
 1143 0062 628E     		ldrh	r2, [r4, #50]
 1144 0064 A284     		strh	r2, [r4, #36]	@ movhi
2027:bluetooth_rxtx.c **** 		}
 1145              		.loc 1 2027 4 is_stmt 1 view .LVU391
2027:bluetooth_rxtx.c **** 		}
 1146              		.loc 1 2027 22 is_stmt 0 view .LVU392
 1147 0066 0022     		movs	r2, #0
 1148 0068 A262     		str	r2, [r4, #40]
ARM GAS  /tmp/ccwF1FQu.s 			page 63


 1149              	.L71:
2030:bluetooth_rxtx.c **** 			// This is a CONNECTION_UPDATE_REQ.
 1150              		.loc 1 2030 3 is_stmt 1 view .LVU393
2030:bluetooth_rxtx.c **** 			// This is a CONNECTION_UPDATE_REQ.
 1151              		.loc 1 2030 6 is_stmt 0 view .LVU394
 1152 006a 032B     		cmp	r3, #3
 1153 006c E0D1     		bne	.L66
2030:bluetooth_rxtx.c **** 			// This is a CONNECTION_UPDATE_REQ.
 1154              		.loc 1 2030 20 discriminator 1 view .LVU395
 1155 006e AB79     		ldrb	r3, [r5, #6]	@ zero_extendqisi2
 1156              	.LVL94:
2030:bluetooth_rxtx.c **** 			// This is a CONNECTION_UPDATE_REQ.
 1157              		.loc 1 2030 20 discriminator 1 view .LVU396
 1158 0070 002B     		cmp	r3, #0
 1159 0072 DDD1     		bne	.L66
2033:bluetooth_rxtx.c **** 			le.win_offset_update = packet[8] + ((u16)packet[9] << 8);
 1160              		.loc 1 2033 4 is_stmt 1 view .LVU397
2033:bluetooth_rxtx.c **** 			le.win_offset_update = packet[8] + ((u16)packet[9] << 8);
 1161              		.loc 1 2033 23 is_stmt 0 view .LVU398
 1162 0074 EB79     		ldrb	r3, [r5, #7]	@ zero_extendqisi2
 1163 0076 84F83030 		strb	r3, [r4, #48]
2034:bluetooth_rxtx.c **** 			le.interval_update = packet[10] + ((u16)packet[11] << 8);
 1164              		.loc 1 2034 4 is_stmt 1 view .LVU399
2034:bluetooth_rxtx.c **** 			le.interval_update = packet[10] + ((u16)packet[11] << 8);
 1165              		.loc 1 2034 51 is_stmt 0 view .LVU400
 1166 007a 6A7A     		ldrb	r2, [r5, #9]	@ zero_extendqisi2
2034:bluetooth_rxtx.c **** 			le.interval_update = packet[10] + ((u16)packet[11] << 8);
 1167              		.loc 1 2034 33 view .LVU401
 1168 007c 2B7A     		ldrb	r3, [r5, #8]	@ zero_extendqisi2
2034:bluetooth_rxtx.c **** 			le.interval_update = packet[10] + ((u16)packet[11] << 8);
 1169              		.loc 1 2034 37 view .LVU402
 1170 007e 03EB0223 		add	r3, r3, r2, lsl #8
2034:bluetooth_rxtx.c **** 			le.interval_update = packet[10] + ((u16)packet[11] << 8);
 1171              		.loc 1 2034 25 view .LVU403
 1172 0082 6386     		strh	r3, [r4, #50]	@ movhi
2035:bluetooth_rxtx.c **** 			le.update_instant = packet[16] + ((u16)packet[17] << 8);
 1173              		.loc 1 2035 4 is_stmt 1 view .LVU404
2035:bluetooth_rxtx.c **** 			le.update_instant = packet[16] + ((u16)packet[17] << 8);
 1174              		.loc 1 2035 50 is_stmt 0 view .LVU405
 1175 0084 EA7A     		ldrb	r2, [r5, #11]	@ zero_extendqisi2
2035:bluetooth_rxtx.c **** 			le.update_instant = packet[16] + ((u16)packet[17] << 8);
 1176              		.loc 1 2035 31 view .LVU406
 1177 0086 AB7A     		ldrb	r3, [r5, #10]	@ zero_extendqisi2
2035:bluetooth_rxtx.c **** 			le.update_instant = packet[16] + ((u16)packet[17] << 8);
 1178              		.loc 1 2035 36 view .LVU407
 1179 0088 03EB0223 		add	r3, r3, r2, lsl #8
2035:bluetooth_rxtx.c **** 			le.update_instant = packet[16] + ((u16)packet[17] << 8);
 1180              		.loc 1 2035 23 view .LVU408
 1181 008c E385     		strh	r3, [r4, #46]	@ movhi
2036:bluetooth_rxtx.c **** 			if (le.update_instant - le.conn_count < 32767)
 1182              		.loc 1 2036 4 is_stmt 1 view .LVU409
2036:bluetooth_rxtx.c **** 			if (le.update_instant - le.conn_count < 32767)
 1183              		.loc 1 2036 49 is_stmt 0 view .LVU410
 1184 008e 6A7C     		ldrb	r2, [r5, #17]	@ zero_extendqisi2
2036:bluetooth_rxtx.c **** 			if (le.update_instant - le.conn_count < 32767)
 1185              		.loc 1 2036 30 view .LVU411
 1186 0090 2B7C     		ldrb	r3, [r5, #16]	@ zero_extendqisi2
ARM GAS  /tmp/ccwF1FQu.s 			page 64


2036:bluetooth_rxtx.c **** 			if (le.update_instant - le.conn_count < 32767)
 1187              		.loc 1 2036 35 view .LVU412
 1188 0092 03EB0223 		add	r3, r3, r2, lsl #8
2037:bluetooth_rxtx.c **** 				le.update_pending = 1;
 1189              		.loc 1 2037 30 view .LVU413
 1190 0096 228C     		ldrh	r2, [r4, #32]
2036:bluetooth_rxtx.c **** 			if (le.update_instant - le.conn_count < 32767)
 1191              		.loc 1 2036 35 view .LVU414
 1192 0098 9BB2     		uxth	r3, r3
2037:bluetooth_rxtx.c **** 				le.update_pending = 1;
 1193              		.loc 1 2037 30 view .LVU415
 1194 009a 92B2     		uxth	r2, r2
2036:bluetooth_rxtx.c **** 			if (le.update_instant - le.conn_count < 32767)
 1195              		.loc 1 2036 22 view .LVU416
 1196 009c A385     		strh	r3, [r4, #44]	@ movhi
2037:bluetooth_rxtx.c **** 				le.update_pending = 1;
 1197              		.loc 1 2037 4 is_stmt 1 view .LVU417
2037:bluetooth_rxtx.c **** 				le.update_pending = 1;
 1198              		.loc 1 2037 26 is_stmt 0 view .LVU418
 1199 009e 9B1A     		subs	r3, r3, r2
2037:bluetooth_rxtx.c **** 				le.update_pending = 1;
 1200              		.loc 1 2037 7 view .LVU419
 1201 00a0 47F6FE72 		movw	r2, #32766
 1202 00a4 9342     		cmp	r3, r2
 1203 00a6 C3DC     		bgt	.L66
2038:bluetooth_rxtx.c **** 		}
 1204              		.loc 1 2038 5 is_stmt 1 view .LVU420
2038:bluetooth_rxtx.c **** 		}
 1205              		.loc 1 2038 23 is_stmt 0 view .LVU421
 1206 00a8 0123     		movs	r3, #1
 1207 00aa A362     		str	r3, [r4, #40]
 1208 00ac C0E7     		b	.L66
 1209              	.LVL95:
 1210              	.L70:
2038:bluetooth_rxtx.c **** 		}
 1211              		.loc 1 2038 23 view .LVU422
 1212              	.LBE17:
2041:bluetooth_rxtx.c **** 		u8 pkt_type = packet[4] & 0x0F;
 1213              		.loc 1 2041 9 is_stmt 1 view .LVU423
2041:bluetooth_rxtx.c **** 		u8 pkt_type = packet[4] & 0x0F;
 1214              		.loc 1 2041 12 is_stmt 0 view .LVU424
 1215 00ae 012A     		cmp	r2, #1
 1216 00b0 BED1     		bne	.L66
 1217              	.LBB18:
2042:bluetooth_rxtx.c **** 		if (pkt_type == 0x05) {
 1218              		.loc 1 2042 3 is_stmt 1 view .LVU425
 1219              	.LVL96:
2043:bluetooth_rxtx.c **** 			uint16_t conn_interval;
 1220              		.loc 1 2043 3 view .LVU426
2043:bluetooth_rxtx.c **** 			uint16_t conn_interval;
 1221              		.loc 1 2043 6 is_stmt 0 view .LVU427
 1222 00b2 03F00F03 		and	r3, r3, #15
 1223              	.LVL97:
2043:bluetooth_rxtx.c **** 			uint16_t conn_interval;
 1224              		.loc 1 2043 6 view .LVU428
 1225 00b6 052B     		cmp	r3, #5
 1226 00b8 BAD1     		bne	.L66
ARM GAS  /tmp/ccwF1FQu.s 			page 65


 1227              	.LBB19:
2044:bluetooth_rxtx.c **** 
 1228              		.loc 1 2044 4 is_stmt 1 view .LVU429
2047:bluetooth_rxtx.c **** 				return;
 1229              		.loc 1 2047 4 view .LVU430
2047:bluetooth_rxtx.c **** 				return;
 1230              		.loc 1 2047 7 is_stmt 0 view .LVU431
 1231 00ba 4379     		ldrb	r3, [r0, #5]	@ zero_extendqisi2
 1232 00bc 222B     		cmp	r3, #34
 1233 00be B7D1     		bne	.L66
2051:bluetooth_rxtx.c **** 			if (conn_interval < 6 || conn_interval > 3200)
 1234              		.loc 1 2051 4 is_stmt 1 view .LVU432
 1235              	.LVL98:
2052:bluetooth_rxtx.c **** 				return;
 1236              		.loc 1 2052 4 view .LVU433
2051:bluetooth_rxtx.c **** 			if (conn_interval < 6 || conn_interval > 3200)
 1237              		.loc 1 2051 27 is_stmt 0 view .LVU434
 1238 00c0 427F     		ldrb	r2, [r0, #29]	@ zero_extendqisi2
2051:bluetooth_rxtx.c **** 			if (conn_interval < 6 || conn_interval > 3200)
 1239              		.loc 1 2051 46 view .LVU435
 1240 00c2 037F     		ldrb	r3, [r0, #28]	@ zero_extendqisi2
2051:bluetooth_rxtx.c **** 			if (conn_interval < 6 || conn_interval > 3200)
 1241              		.loc 1 2051 38 view .LVU436
 1242 00c4 43EA0223 		orr	r3, r3, r2, lsl #8
2052:bluetooth_rxtx.c **** 				return;
 1243              		.loc 1 2052 7 view .LVU437
 1244 00c8 40F67A42 		movw	r2, #3194
2052:bluetooth_rxtx.c **** 				return;
 1245              		.loc 1 2052 26 view .LVU438
 1246 00cc 063B     		subs	r3, r3, #6
2052:bluetooth_rxtx.c **** 				return;
 1247              		.loc 1 2052 7 view .LVU439
 1248 00ce 9BB2     		uxth	r3, r3
 1249 00d0 9342     		cmp	r3, r2
 1250 00d2 ADD8     		bhi	.L66
2057:bluetooth_rxtx.c **** 				memcmp(le.target, &packet[6], 6) &&  // Target address doesn't match Initiator.
 1251              		.loc 1 2057 4 is_stmt 1 view .LVU440
2057:bluetooth_rxtx.c **** 				memcmp(le.target, &packet[6], 6) &&  // Target address doesn't match Initiator.
 1252              		.loc 1 2057 7 is_stmt 0 view .LVU441
 1253 00d4 636C     		ldr	r3, [r4, #68]
 1254 00d6 73BB     		cbnz	r3, .L73
 1255              	.LVL99:
 1256              	.L74:
2063:bluetooth_rxtx.c **** 			le.crc_verify = 0; // we will drop many packets if we attempt to filter by CRC
 1257              		.loc 1 2063 4 is_stmt 1 view .LVU442
2063:bluetooth_rxtx.c **** 			le.crc_verify = 0; // we will drop many packets if we attempt to filter by CRC
 1258              		.loc 1 2063 18 is_stmt 0 view .LVU443
 1259 00d8 0223     		movs	r3, #2
 1260 00da 2375     		strb	r3, [r4, #20]
2064:bluetooth_rxtx.c **** 
 1261              		.loc 1 2064 4 is_stmt 1 view .LVU444
2064:bluetooth_rxtx.c **** 
 1262              		.loc 1 2064 18 is_stmt 0 view .LVU445
 1263 00dc 0023     		movs	r3, #0
 1264 00de 2361     		str	r3, [r4, #16]
2066:bluetooth_rxtx.c **** 				aa |= packet[18+i] << (i*8);
 1265              		.loc 1 2066 4 is_stmt 1 view .LVU446
ARM GAS  /tmp/ccwF1FQu.s 			page 66


 1266              	.LVL100:
2066:bluetooth_rxtx.c **** 				aa |= packet[18+i] << (i*8);
 1267              		.loc 1 2066 16 view .LVU447
2067:bluetooth_rxtx.c **** 			le_set_access_address(aa);
 1268              		.loc 1 2067 5 view .LVU448
2066:bluetooth_rxtx.c **** 				aa |= packet[18+i] << (i*8);
 1269              		.loc 1 2066 23 view .LVU449
2066:bluetooth_rxtx.c **** 				aa |= packet[18+i] << (i*8);
 1270              		.loc 1 2066 16 view .LVU450
2067:bluetooth_rxtx.c **** 			le_set_access_address(aa);
 1271              		.loc 1 2067 5 view .LVU451
2066:bluetooth_rxtx.c **** 				aa |= packet[18+i] << (i*8);
 1272              		.loc 1 2066 23 view .LVU452
2066:bluetooth_rxtx.c **** 				aa |= packet[18+i] << (i*8);
 1273              		.loc 1 2066 16 view .LVU453
2067:bluetooth_rxtx.c **** 			le_set_access_address(aa);
 1274              		.loc 1 2067 5 view .LVU454
2067:bluetooth_rxtx.c **** 			le_set_access_address(aa);
 1275              		.loc 1 2067 17 is_stmt 0 view .LVU455
 1276 00e0 287D     		ldrb	r0, [r5, #20]	@ zero_extendqisi2
2067:bluetooth_rxtx.c **** 			le_set_access_address(aa);
 1277              		.loc 1 2067 24 view .LVU456
 1278 00e2 AB7C     		ldrb	r3, [r5, #18]	@ zero_extendqisi2
2067:bluetooth_rxtx.c **** 			le_set_access_address(aa);
 1279              		.loc 1 2067 8 view .LVU457
 1280 00e4 43EA0043 		orr	r3, r3, r0, lsl #16
2067:bluetooth_rxtx.c **** 			le_set_access_address(aa);
 1281              		.loc 1 2067 17 view .LVU458
 1282 00e8 E87C     		ldrb	r0, [r5, #19]	@ zero_extendqisi2
2067:bluetooth_rxtx.c **** 			le_set_access_address(aa);
 1283              		.loc 1 2067 8 view .LVU459
 1284 00ea 43EA0023 		orr	r3, r3, r0, lsl #8
 1285              	.LVL101:
2066:bluetooth_rxtx.c **** 				aa |= packet[18+i] << (i*8);
 1286              		.loc 1 2066 23 is_stmt 1 view .LVU460
2066:bluetooth_rxtx.c **** 				aa |= packet[18+i] << (i*8);
 1287              		.loc 1 2066 16 view .LVU461
2067:bluetooth_rxtx.c **** 			le_set_access_address(aa);
 1288              		.loc 1 2067 5 view .LVU462
2066:bluetooth_rxtx.c **** 				aa |= packet[18+i] << (i*8);
 1289              		.loc 1 2066 23 view .LVU463
2066:bluetooth_rxtx.c **** 				aa |= packet[18+i] << (i*8);
 1290              		.loc 1 2066 16 view .LVU464
2068:bluetooth_rxtx.c **** 
 1291              		.loc 1 2068 4 view .LVU465
2067:bluetooth_rxtx.c **** 			le_set_access_address(aa);
 1292              		.loc 1 2067 17 is_stmt 0 view .LVU466
 1293 00ee 687D     		ldrb	r0, [r5, #21]	@ zero_extendqisi2
2068:bluetooth_rxtx.c **** 
 1294              		.loc 1 2068 4 view .LVU467
 1295 00f0 43EA0060 		orr	r0, r3, r0, lsl #24
 1296 00f4 FFF7FEFF 		bl	le_set_access_address
 1297              	.LVL102:
2071:bluetooth_rxtx.c **** 						| (packet[CRC_INIT+1] << 8)
 1298              		.loc 1 2071 4 is_stmt 1 view .LVU468
2072:bluetooth_rxtx.c **** 						|  packet[CRC_INIT+0];
 1299              		.loc 1 2072 16 is_stmt 0 view .LVU469
ARM GAS  /tmp/ccwF1FQu.s 			page 67


 1300 00f8 E87D     		ldrb	r0, [r5, #23]	@ zero_extendqisi2
2071:bluetooth_rxtx.c **** 						| (packet[CRC_INIT+1] << 8)
 1301              		.loc 1 2071 25 view .LVU470
 1302 00fa 2B7E     		ldrb	r3, [r5, #24]	@ zero_extendqisi2
2072:bluetooth_rxtx.c **** 						|  packet[CRC_INIT+0];
 1303              		.loc 1 2072 29 view .LVU471
 1304 00fc 0002     		lsls	r0, r0, #8
2072:bluetooth_rxtx.c **** 						|  packet[CRC_INIT+0];
 1305              		.loc 1 2072 7 view .LVU472
 1306 00fe 40EA0340 		orr	r0, r0, r3, lsl #16
2073:bluetooth_rxtx.c **** 			le.crc_init_reversed = rbit(le.crc_init);
 1307              		.loc 1 2073 16 view .LVU473
 1308 0102 AB7D     		ldrb	r3, [r5, #22]	@ zero_extendqisi2
2073:bluetooth_rxtx.c **** 			le.crc_init_reversed = rbit(le.crc_init);
 1309              		.loc 1 2073 7 view .LVU474
 1310 0104 1843     		orrs	r0, r0, r3
2071:bluetooth_rxtx.c **** 						| (packet[CRC_INIT+1] << 8)
 1311              		.loc 1 2071 16 view .LVU475
 1312 0106 A060     		str	r0, [r4, #8]
2074:bluetooth_rxtx.c **** 
 1313              		.loc 1 2074 4 is_stmt 1 view .LVU476
2074:bluetooth_rxtx.c **** 
 1314              		.loc 1 2074 27 is_stmt 0 view .LVU477
 1315 0108 FFF7FEFF 		bl	rbit
 1316              	.LVL103:
2077:bluetooth_rxtx.c **** 
 1317              		.loc 1 2077 16 view .LVU478
 1318 010c 6B7E     		ldrb	r3, [r5, #25]	@ zero_extendqisi2
2074:bluetooth_rxtx.c **** 
 1319              		.loc 1 2074 25 view .LVU479
 1320 010e E060     		str	r0, [r4, #12]
2077:bluetooth_rxtx.c **** 
 1321              		.loc 1 2077 4 is_stmt 1 view .LVU480
2077:bluetooth_rxtx.c **** 
 1322              		.loc 1 2077 16 is_stmt 0 view .LVU481
 1323 0110 84F82230 		strb	r3, [r4, #34]
2080:bluetooth_rxtx.c **** 
 1324              		.loc 1 2080 4 is_stmt 1 view .LVU482
2080:bluetooth_rxtx.c **** 
 1325              		.loc 1 2080 26 is_stmt 0 view .LVU483
 1326 0114 AB7E     		ldrb	r3, [r5, #26]	@ zero_extendqisi2
 1327 0116 A384     		strh	r3, [r4, #36]	@ movhi
2083:bluetooth_rxtx.c **** 							 |  packet[CONN_INTERVAL+0];
 1328              		.loc 1 2083 4 is_stmt 1 view .LVU484
2083:bluetooth_rxtx.c **** 							 |  packet[CONN_INTERVAL+0];
 1329              		.loc 1 2083 30 is_stmt 0 view .LVU485
 1330 0118 6A7F     		ldrb	r2, [r5, #29]	@ zero_extendqisi2
2084:bluetooth_rxtx.c **** 
 1331              		.loc 1 2084 18 view .LVU486
 1332 011a 2B7F     		ldrb	r3, [r5, #28]	@ zero_extendqisi2
2084:bluetooth_rxtx.c **** 
 1333              		.loc 1 2084 9 view .LVU487
 1334 011c 43EA0223 		orr	r3, r3, r2, lsl #8
2091:bluetooth_rxtx.c **** 		}
 1335              		.loc 1 2091 11 view .LVU488
 1336 0120 0122     		movs	r2, #1
2083:bluetooth_rxtx.c **** 							 |  packet[CONN_INTERVAL+0];
ARM GAS  /tmp/ccwF1FQu.s 			page 68


 1337              		.loc 1 2083 21 view .LVU489
 1338 0122 E383     		strh	r3, [r4, #30]	@ movhi
2087:bluetooth_rxtx.c **** 			le.channel_idx = le.channel_increment;
 1339              		.loc 1 2087 4 is_stmt 1 view .LVU490
2087:bluetooth_rxtx.c **** 			le.channel_idx = le.channel_increment;
 1340              		.loc 1 2087 47 is_stmt 0 view .LVU491
 1341 0124 95F82730 		ldrb	r3, [r5, #39]	@ zero_extendqisi2
 1342 0128 03F01F03 		and	r3, r3, #31
2087:bluetooth_rxtx.c **** 			le.channel_idx = le.channel_increment;
 1343              		.loc 1 2087 25 view .LVU492
 1344 012c A375     		strb	r3, [r4, #22]
2088:bluetooth_rxtx.c **** 
 1345              		.loc 1 2088 4 is_stmt 1 view .LVU493
2088:bluetooth_rxtx.c **** 
 1346              		.loc 1 2088 19 is_stmt 0 view .LVU494
 1347 012e 6375     		strb	r3, [r4, #21]
2091:bluetooth_rxtx.c **** 		}
 1348              		.loc 1 2091 4 is_stmt 1 view .LVU495
2091:bluetooth_rxtx.c **** 		}
 1349              		.loc 1 2091 11 is_stmt 0 view .LVU496
 1350 0130 0C4B     		ldr	r3, .L81+8
 1351 0132 DA72     		strb	r2, [r3, #11]
 1352 0134 7CE7     		b	.L66
 1353              	.LVL104:
 1354              	.L73:
2058:bluetooth_rxtx.c **** 				memcmp(le.target, &packet[12], 6)) {  // Target address doesn't match Advertiser.
 1355              		.loc 1 2058 5 discriminator 1 view .LVU497
 1356 0136 0622     		movs	r2, #6
 1357 0138 8118     		adds	r1, r0, r2
 1358 013a 04F13800 		add	r0, r4, #56
 1359              	.LVL105:
2058:bluetooth_rxtx.c **** 				memcmp(le.target, &packet[12], 6)) {  // Target address doesn't match Advertiser.
 1360              		.loc 1 2058 5 discriminator 1 view .LVU498
 1361 013e FFF7FEFF 		bl	memcmp
 1362              	.LVL106:
2057:bluetooth_rxtx.c **** 				memcmp(le.target, &packet[6], 6) &&  // Target address doesn't match Initiator.
 1363              		.loc 1 2057 22 discriminator 1 view .LVU499
 1364 0142 0028     		cmp	r0, #0
 1365 0144 C8D0     		beq	.L74
2059:bluetooth_rxtx.c **** 				return;
 1366              		.loc 1 2059 5 view .LVU500
 1367 0146 0622     		movs	r2, #6
 1368 0148 05F10C01 		add	r1, r5, #12
 1369 014c 04F13800 		add	r0, r4, #56
 1370 0150 FFF7FEFF 		bl	memcmp
 1371              	.LVL107:
2058:bluetooth_rxtx.c **** 				memcmp(le.target, &packet[12], 6)) {  // Target address doesn't match Advertiser.
 1372              		.loc 1 2058 38 view .LVU501
 1373 0154 0028     		cmp	r0, #0
 1374 0156 BFD0     		beq	.L74
 1375 0158 6AE7     		b	.L66
 1376              	.L82:
 1377 015a 00BF     		.align	2
 1378              	.L81:
 1379 015c 00000000 		.word	.LANCHOR0
 1380 0160 00000000 		.word	clkn
 1381 0164 00000000 		.word	.LANCHOR1
ARM GAS  /tmp/ccwF1FQu.s 			page 69


 1382              	.LBE19:
 1383              	.LBE18:
 1384              		.cfi_endproc
 1385              	.LFE25:
 1387              		.section	.rodata.str1.1,"aMS",%progbits,1
 1388              	.LC3:
 1389 0000 32303230 		.ascii	"2020-12-R1\000"
 1389      2D31322D 
 1389      523100
 1390              		.section	.text.vendor_request_handler,"ax",%progbits
 1391              		.align	1
 1392              		.syntax unified
 1393              		.thumb
 1394              		.thumb_func
 1395              		.fpu softvfp
 1397              	vendor_request_handler:
 1398              	.LVL108:
 1399              	.LFB2:
 191:bluetooth_rxtx.c **** 	uint32_t clock;
 1400              		.loc 1 191 1 is_stmt 1 view -0
 1401              		.cfi_startproc
 1402              		@ args = 0, pretend = 0, frame = 0
 1403              		@ frame_needed = 0, uses_anonymous_args = 0
 191:bluetooth_rxtx.c **** 	uint32_t clock;
 1404              		.loc 1 191 1 is_stmt 0 view .LVU503
 1405 0000 2DE9F048 		push	{r4, r5, r6, r7, fp, lr}
 1406              		.cfi_def_cfa_offset 24
 1407              		.cfi_offset 4, -24
 1408              		.cfi_offset 5, -20
 1409              		.cfi_offset 6, -16
 1410              		.cfi_offset 7, -12
 1411              		.cfi_offset 11, -8
 1412              		.cfi_offset 14, -4
 191:bluetooth_rxtx.c **** 	uint32_t clock;
 1413              		.loc 1 191 1 view .LVU504
 1414 0004 0E46     		mov	r6, r1
 192:bluetooth_rxtx.c **** 	size_t length; // string length
 1415              		.loc 1 192 2 is_stmt 1 view .LVU505
 193:bluetooth_rxtx.c **** 	usb_pkt_rx* p = NULL;
 1416              		.loc 1 193 2 view .LVU506
 194:bluetooth_rxtx.c **** 	uint16_t reg_val;
 1417              		.loc 1 194 2 view .LVU507
 1418              	.LVL109:
 195:bluetooth_rxtx.c **** 	uint8_t i;
 1419              		.loc 1 195 2 view .LVU508
 196:bluetooth_rxtx.c **** 	unsigned data_in_len = request_params[2];
 1420              		.loc 1 196 2 view .LVU509
 197:bluetooth_rxtx.c **** 
 1421              		.loc 1 197 2 view .LVU510
 199:bluetooth_rxtx.c **** 
 1422              		.loc 1 199 2 view .LVU511
 191:bluetooth_rxtx.c **** 	uint32_t clock;
 1423              		.loc 1 191 1 is_stmt 0 view .LVU512
 1424 0006 1546     		mov	r5, r2
 1425 0008 1C46     		mov	r4, r3
 1426 000a 4928     		cmp	r0, #73
 1427 000c 00F27B83 		bhi	.L199
ARM GAS  /tmp/ccwF1FQu.s 			page 70


 1428 0010 DFE810F0 		tbh	[pc, r0, lsl #1]
 1429              	.LVL110:
 1430              	.L86:
 1431 0014 1301     		.2byte	(.L222-.L86)/2
 1432 0016 4A00     		.2byte	(.L155-.L86)/2
 1433 0018 5000     		.2byte	(.L154-.L86)/2
 1434 001a 5500     		.2byte	(.L153-.L86)/2
 1435 001c 5B00     		.2byte	(.L152-.L86)/2
 1436 001e 6100     		.2byte	(.L151-.L86)/2
 1437 0020 6600     		.2byte	(.L150-.L86)/2
 1438 0022 6900     		.2byte	(.L149-.L86)/2
 1439 0024 6E00     		.2byte	(.L148-.L86)/2
 1440 0026 7200     		.2byte	(.L147-.L86)/2
 1441 0028 7700     		.2byte	(.L146-.L86)/2
 1442 002a CE00     		.2byte	(.L145-.L86)/2
 1443 002c D900     		.2byte	(.L144-.L86)/2
 1444 002e 1801     		.2byte	(.L221-.L86)/2
 1445 0030 8300     		.2byte	(.L142-.L86)/2
 1446 0032 7D00     		.2byte	(.L141-.L86)/2
 1447 0034 8800     		.2byte	(.L140-.L86)/2
 1448 0036 8D00     		.2byte	(.L139-.L86)/2
 1449 0038 9200     		.2byte	(.L138-.L86)/2
 1450 003a 9400     		.2byte	(.L137-.L86)/2
 1451 003c 9A00     		.2byte	(.L136-.L86)/2
 1452 003e C400     		.2byte	(.L135-.L86)/2
 1453 0040 C700     		.2byte	(.L134-.L86)/2
 1454 0042 CA00     		.2byte	(.L133-.L86)/2
 1455 0044 1101     		.2byte	(.L132-.L86)/2
 1456 0046 1501     		.2byte	(.L131-.L86)/2
 1457 0048 7903     		.2byte	(.L199-.L86)/2
 1458 004a 1B01     		.2byte	(.L130-.L86)/2
 1459 004c 9E00     		.2byte	(.L129-.L86)/2
 1460 004e A600     		.2byte	(.L128-.L86)/2
 1461 0050 B300     		.2byte	(.L127-.L86)/2
 1462 0052 B000     		.2byte	(.L126-.L86)/2
 1463 0054 B600     		.2byte	(.L125-.L86)/2
 1464 0056 4701     		.2byte	(.L124-.L86)/2
 1465 0058 3901     		.2byte	(.L123-.L86)/2
 1466 005a 6501     		.2byte	(.L122-.L86)/2
 1467 005c 6901     		.2byte	(.L121-.L86)/2
 1468 005e 7001     		.2byte	(.L120-.L86)/2
 1469 0060 7201     		.2byte	(.L119-.L86)/2
 1470 0062 CE01     		.2byte	(.L118-.L86)/2
 1471 0064 0802     		.2byte	(.L117-.L86)/2
 1472 0066 2502     		.2byte	(.L116-.L86)/2
 1473 0068 6502     		.2byte	(.L115-.L86)/2
 1474 006a 7502     		.2byte	(.L114-.L86)/2
 1475 006c 8002     		.2byte	(.L113-.L86)/2
 1476 006e 8100     		.2byte	(.L214-.L86)/2
 1477 0070 8702     		.2byte	(.L111-.L86)/2
 1478 0072 8B02     		.2byte	(.L110-.L86)/2
 1479 0074 9102     		.2byte	(.L109-.L86)/2
 1480 0076 9802     		.2byte	(.L108-.L86)/2
 1481 0078 A402     		.2byte	(.L107-.L86)/2
 1482 007a 0C02     		.2byte	(.L106-.L86)/2
 1483 007c 1A02     		.2byte	(.L105-.L86)/2
 1484 007e AD02     		.2byte	(.L104-.L86)/2
ARM GAS  /tmp/ccwF1FQu.s 			page 71


 1485 0080 E502     		.2byte	(.L103-.L86)/2
 1486 0082 5701     		.2byte	(.L102-.L86)/2
 1487 0084 FA02     		.2byte	(.L101-.L86)/2
 1488 0086 7903     		.2byte	(.L199-.L86)/2
 1489 0088 B402     		.2byte	(.L100-.L86)/2
 1490 008a 6603     		.2byte	(.L99-.L86)/2
 1491 008c 6A03     		.2byte	(.L98-.L86)/2
 1492 008e F101     		.2byte	(.L97-.L86)/2
 1493 0090 0402     		.2byte	(.L96-.L86)/2
 1494 0092 3002     		.2byte	(.L95-.L86)/2
 1495 0094 7903     		.2byte	(.L199-.L86)/2
 1496 0096 C902     		.2byte	(.L190-.L86)/2
 1497 0098 CB02     		.2byte	(.L93-.L86)/2
 1498 009a 3601     		.2byte	(.L92-.L86)/2
 1499 009c DB02     		.2byte	(.L91-.L86)/2
 1500 009e 3702     		.2byte	(.L90-.L86)/2
 1501 00a0 6203     		.2byte	(.L89-.L86)/2
 1502 00a2 EF02     		.2byte	(.L88-.L86)/2
 1503 00a4 6F03     		.2byte	(.L87-.L86)/2
 1504 00a6 7603     		.2byte	(.L85-.L86)/2
 1505              		.p2align 1
 1506              	.L155:
 206:bluetooth_rxtx.c **** 		*data_len = 0;
 1507              		.loc 1 206 3 is_stmt 1 view .LVU513
 206:bluetooth_rxtx.c **** 		*data_len = 0;
 1508              		.loc 1 206 18 is_stmt 0 view .LVU514
 1509 00a8 0120     		movs	r0, #1
 1510              	.LVL111:
 206:bluetooth_rxtx.c **** 		*data_len = 0;
 1511              		.loc 1 206 18 view .LVU515
 1512 00aa B24B     		ldr	r3, .L244
 1513 00ac 9874     		strb	r0, [r3, #18]
 207:bluetooth_rxtx.c **** 		break;
 1514              		.loc 1 207 3 is_stmt 1 view .LVU516
 207:bluetooth_rxtx.c **** 		break;
 1515              		.loc 1 207 13 is_stmt 0 view .LVU517
 1516 00ae 0023     		movs	r3, #0
 1517              	.LVL112:
 1518              	.L216:
 503:bluetooth_rxtx.c **** 		break;
 1519              		.loc 1 503 13 view .LVU518
 1520 00b0 2360     		str	r3, [r4]
 504:bluetooth_rxtx.c **** 
 1521              		.loc 1 504 3 is_stmt 1 view .LVU519
 1522 00b2 9EE1     		b	.L83
 1523              	.LVL113:
 1524              	.L154:
 212:bluetooth_rxtx.c **** 		requested_mode = MODE_TX_SYMBOLS;
 1525              		.loc 1 212 3 view .LVU520
 212:bluetooth_rxtx.c **** 		requested_mode = MODE_TX_SYMBOLS;
 1526              		.loc 1 212 12 is_stmt 0 view .LVU521
 1527 00b4 0222     		movs	r2, #2
 1528              	.LVL114:
 212:bluetooth_rxtx.c **** 		requested_mode = MODE_TX_SYMBOLS;
 1529              		.loc 1 212 12 view .LVU522
 1530 00b6 AF4B     		ldr	r3, .L244
 1531 00b8 9A72     		strb	r2, [r3, #10]
ARM GAS  /tmp/ccwF1FQu.s 			page 72


 213:bluetooth_rxtx.c **** 		*data_len = 0;
 1532              		.loc 1 213 3 is_stmt 1 view .LVU523
 1533              	.LVL115:
 1534              	.L225:
 647:bluetooth_rxtx.c **** 		*data_len = 0;
 1535              		.loc 1 647 18 is_stmt 0 view .LVU524
 1536 00ba 9A74     		strb	r2, [r3, #18]
 1537 00bc BDE0     		b	.L222
 1538              	.LVL116:
 1539              	.L153:
 219:bluetooth_rxtx.c **** 		*data_len = 1;
 1540              		.loc 1 219 3 is_stmt 1 view .LVU525
 219:bluetooth_rxtx.c **** 		*data_len = 1;
 1541              		.loc 1 219 14 is_stmt 0 view .LVU526
 1542 00be AE4B     		ldr	r3, .L244+4
 1543 00c0 1B68     		ldr	r3, [r3]
 219:bluetooth_rxtx.c **** 		*data_len = 1;
 1544              		.loc 1 219 26 view .LVU527
 1545 00c2 C3F34003 		ubfx	r3, r3, #1, #1
 1546              	.L220:
 584:bluetooth_rxtx.c **** 		*data_len = 1;
 1547              		.loc 1 584 31 view .LVU528
 1548 00c6 2B70     		strb	r3, [r5]
 1549              	.LVL117:
 585:bluetooth_rxtx.c **** 		break;
 1550              		.loc 1 585 3 is_stmt 1 view .LVU529
 1551 00c8 48E0     		b	.L217
 1552              	.LVL118:
 1553              	.L152:
 224:bluetooth_rxtx.c **** 			USRLED_SET;
 1554              		.loc 1 224 3 view .LVU530
 1555 00ca 0223     		movs	r3, #2
 224:bluetooth_rxtx.c **** 			USRLED_SET;
 1556              		.loc 1 224 6 is_stmt 0 view .LVU531
 1557 00cc 0A88     		ldrh	r2, [r1]
 1558              	.LVL119:
 1559              	.L238:
 260:bluetooth_rxtx.c **** 			CC1V8_SET;
 1560              		.loc 1 260 6 view .LVU532
 1561 00ce E2B1     		cbz	r2, .L160
 261:bluetooth_rxtx.c **** 		else
 1562              		.loc 1 261 4 is_stmt 1 view .LVU533
 1563 00d0 AA4A     		ldr	r2, .L244+8
 1564              	.L224:
 300:bluetooth_rxtx.c **** 		break;
 1565              		.loc 1 300 4 is_stmt 0 view .LVU534
 1566 00d2 1360     		str	r3, [r2]
 1567 00d4 1FE0     		b	.L214
 1568              	.LVL120:
 1569              	.L151:
 231:bluetooth_rxtx.c **** 		*data_len = 1;
 1570              		.loc 1 231 3 is_stmt 1 view .LVU535
 231:bluetooth_rxtx.c **** 		*data_len = 1;
 1571              		.loc 1 231 14 is_stmt 0 view .LVU536
 1572 00d6 A84B     		ldr	r3, .L244+4
 1573 00d8 1B68     		ldr	r3, [r3]
 231:bluetooth_rxtx.c **** 		*data_len = 1;
ARM GAS  /tmp/ccwF1FQu.s 			page 73


 1574              		.loc 1 231 25 view .LVU537
 1575 00da C3F30013 		ubfx	r3, r3, #4, #1
 1576 00de F2E7     		b	.L220
 1577              	.L150:
 236:bluetooth_rxtx.c **** 			RXLED_SET;
 1578              		.loc 1 236 3 is_stmt 1 view .LVU538
 1579 00e0 1023     		movs	r3, #16
 236:bluetooth_rxtx.c **** 			RXLED_SET;
 1580              		.loc 1 236 6 is_stmt 0 view .LVU539
 1581 00e2 0A88     		ldrh	r2, [r1]
 1582              	.LVL121:
 236:bluetooth_rxtx.c **** 			RXLED_SET;
 1583              		.loc 1 236 6 view .LVU540
 1584 00e4 F3E7     		b	.L238
 1585              	.LVL122:
 1586              	.L149:
 243:bluetooth_rxtx.c **** 		*data_len = 1;
 1587              		.loc 1 243 3 is_stmt 1 view .LVU541
 243:bluetooth_rxtx.c **** 		*data_len = 1;
 1588              		.loc 1 243 14 is_stmt 0 view .LVU542
 1589 00e6 A44B     		ldr	r3, .L244+4
 1590              	.L234:
 292:bluetooth_rxtx.c **** 		*data_len = 1;
 1591              		.loc 1 292 14 view .LVU543
 1592 00e8 1B68     		ldr	r3, [r3]
 292:bluetooth_rxtx.c **** 		*data_len = 1;
 1593              		.loc 1 292 23 view .LVU544
 1594 00ea C3F30023 		ubfx	r3, r3, #8, #1
 1595 00ee EAE7     		b	.L220
 1596              	.L148:
 248:bluetooth_rxtx.c **** 			TXLED_SET;
 1597              		.loc 1 248 3 is_stmt 1 view .LVU545
 1598 00f0 4FF48073 		mov	r3, #256
 248:bluetooth_rxtx.c **** 			TXLED_SET;
 1599              		.loc 1 248 6 is_stmt 0 view .LVU546
 1600 00f4 0A88     		ldrh	r2, [r1]
 1601              	.LVL123:
 248:bluetooth_rxtx.c **** 			TXLED_SET;
 1602              		.loc 1 248 6 view .LVU547
 1603 00f6 EAE7     		b	.L238
 1604              	.LVL124:
 1605              	.L147:
 255:bluetooth_rxtx.c **** 		*data_len = 1;
 1606              		.loc 1 255 3 is_stmt 1 view .LVU548
 255:bluetooth_rxtx.c **** 		*data_len = 1;
 1607              		.loc 1 255 14 is_stmt 0 view .LVU549
 1608 00f8 9F4B     		ldr	r3, .L244+4
 1609 00fa 1B68     		ldr	r3, [r3]
 255:bluetooth_rxtx.c **** 		*data_len = 1;
 1610              		.loc 1 255 25 view .LVU550
 1611 00fc C3F34023 		ubfx	r3, r3, #9, #1
 1612 0100 E1E7     		b	.L220
 1613              	.L146:
 260:bluetooth_rxtx.c **** 			CC1V8_SET;
 1614              		.loc 1 260 3 is_stmt 1 view .LVU551
 1615 0102 4FF40073 		mov	r3, #512
 260:bluetooth_rxtx.c **** 			CC1V8_SET;
ARM GAS  /tmp/ccwF1FQu.s 			page 74


 1616              		.loc 1 260 6 is_stmt 0 view .LVU552
 1617 0106 0A88     		ldrh	r2, [r1]
 1618              	.LVL125:
 260:bluetooth_rxtx.c **** 			CC1V8_SET;
 1619              		.loc 1 260 6 view .LVU553
 1620 0108 E1E7     		b	.L238
 1621              	.L160:
 263:bluetooth_rxtx.c **** 		break;
 1622              		.loc 1 263 4 is_stmt 1 view .LVU554
 1623 010a 9D4A     		ldr	r2, .L244+12
 1624 010c E1E7     		b	.L224
 1625              	.LVL126:
 1626              	.L141:
 267:bluetooth_rxtx.c **** 		break;
 1627              		.loc 1 267 3 view .LVU555
 1628 010e 2146     		mov	r1, r4
 1629              	.LVL127:
 267:bluetooth_rxtx.c **** 		break;
 1630              		.loc 1 267 3 is_stmt 0 view .LVU556
 1631 0110 1046     		mov	r0, r2
 1632              	.LVL128:
 267:bluetooth_rxtx.c **** 		break;
 1633              		.loc 1 267 3 view .LVU557
 1634 0112 FFF7FEFF 		bl	get_part_num
 1635              	.LVL129:
 268:bluetooth_rxtx.c **** 
 1636              		.loc 1 268 3 is_stmt 1 view .LVU558
 1637              	.L214:
 731:bluetooth_rxtx.c **** 
 1638              		.loc 1 731 3 view .LVU559
 736:bluetooth_rxtx.c **** }
 1639              		.loc 1 736 9 is_stmt 0 view .LVU560
 1640 0116 0120     		movs	r0, #1
 731:bluetooth_rxtx.c **** 
 1641              		.loc 1 731 3 view .LVU561
 1642 0118 6BE1     		b	.L83
 1643              	.LVL130:
 1644              	.L142:
 275:bluetooth_rxtx.c **** 		break;
 1645              		.loc 1 275 3 is_stmt 1 view .LVU562
 1646 011a 2146     		mov	r1, r4
 1647              	.LVL131:
 275:bluetooth_rxtx.c **** 		break;
 1648              		.loc 1 275 3 is_stmt 0 view .LVU563
 1649 011c 1046     		mov	r0, r2
 1650              	.LVL132:
 275:bluetooth_rxtx.c **** 		break;
 1651              		.loc 1 275 3 view .LVU564
 1652 011e FFF7FEFF 		bl	get_device_serial
 1653              	.LVL133:
 276:bluetooth_rxtx.c **** 
 1654              		.loc 1 276 3 is_stmt 1 view .LVU565
 1655 0122 F8E7     		b	.L214
 1656              	.LVL134:
 1657              	.L140:
 280:bluetooth_rxtx.c **** 		*data_len = 1;
 1658              		.loc 1 280 3 view .LVU566
ARM GAS  /tmp/ccwF1FQu.s 			page 75


 280:bluetooth_rxtx.c **** 		*data_len = 1;
 1659              		.loc 1 280 14 is_stmt 0 view .LVU567
 1660 0124 974B     		ldr	r3, .L244+16
 1661 0126 1B68     		ldr	r3, [r3]
 280:bluetooth_rxtx.c **** 		*data_len = 1;
 1662              		.loc 1 280 24 view .LVU568
 1663 0128 C3F3C013 		ubfx	r3, r3, #7, #1
 1664 012c CBE7     		b	.L220
 1665              	.L139:
 285:bluetooth_rxtx.c **** 			PAEN_SET;
 1666              		.loc 1 285 3 is_stmt 1 view .LVU569
 1667 012e 8023     		movs	r3, #128
 285:bluetooth_rxtx.c **** 			PAEN_SET;
 1668              		.loc 1 285 6 is_stmt 0 view .LVU570
 1669 0130 0A88     		ldrh	r2, [r1]
 1670              	.LVL135:
 1671              	.L242:
 297:bluetooth_rxtx.c **** 			HGM_SET;
 1672              		.loc 1 297 6 view .LVU571
 1673 0132 3AB1     		cbz	r2, .L162
 298:bluetooth_rxtx.c **** 		else
 1674              		.loc 1 298 4 is_stmt 1 view .LVU572
 1675 0134 944A     		ldr	r2, .L244+20
 1676 0136 CCE7     		b	.L224
 1677              	.LVL136:
 1678              	.L138:
 292:bluetooth_rxtx.c **** 		*data_len = 1;
 1679              		.loc 1 292 3 view .LVU573
 292:bluetooth_rxtx.c **** 		*data_len = 1;
 1680              		.loc 1 292 14 is_stmt 0 view .LVU574
 1681 0138 924B     		ldr	r3, .L244+16
 1682 013a D5E7     		b	.L234
 1683              	.L137:
 297:bluetooth_rxtx.c **** 			HGM_SET;
 1684              		.loc 1 297 3 is_stmt 1 view .LVU575
 1685 013c 4FF48073 		mov	r3, #256
 297:bluetooth_rxtx.c **** 			HGM_SET;
 1686              		.loc 1 297 6 is_stmt 0 view .LVU576
 1687 0140 0A88     		ldrh	r2, [r1]
 1688              	.LVL137:
 297:bluetooth_rxtx.c **** 			HGM_SET;
 1689              		.loc 1 297 6 view .LVU577
 1690 0142 F6E7     		b	.L242
 1691              	.L162:
 300:bluetooth_rxtx.c **** 		break;
 1692              		.loc 1 300 4 is_stmt 1 view .LVU578
 1693 0144 914A     		ldr	r2, .L244+24
 1694 0146 C4E7     		b	.L224
 1695              	.LVL138:
 1696              	.L136:
 306:bluetooth_rxtx.c **** 		break;
 1697              		.loc 1 306 3 view .LVU579
 306:bluetooth_rxtx.c **** 		break;
 1698              		.loc 1 306 18 is_stmt 0 view .LVU580
 1699 0148 0322     		movs	r2, #3
 1700              	.LVL139:
 306:bluetooth_rxtx.c **** 		break;
ARM GAS  /tmp/ccwF1FQu.s 			page 76


 1701              		.loc 1 306 18 view .LVU581
 1702 014a 8A4B     		ldr	r3, .L244
 1703              	.L215:
 730:bluetooth_rxtx.c **** 		break;
 1704              		.loc 1 730 18 view .LVU582
 1705 014c 9A74     		strb	r2, [r3, #18]
 1706 014e E2E7     		b	.L214
 1707              	.LVL140:
 1708              	.L129:
 310:bluetooth_rxtx.c **** 		*data_len = 1;
 1709              		.loc 1 310 3 is_stmt 1 view .LVU583
 310:bluetooth_rxtx.c **** 		*data_len = 1;
 1710              		.loc 1 310 13 is_stmt 0 view .LVU584
 1711 0150 0520     		movs	r0, #5
 1712              	.LVL141:
 310:bluetooth_rxtx.c **** 		*data_len = 1;
 1713              		.loc 1 310 13 view .LVU585
 1714 0152 FFF7FEFF 		bl	cc2400_get
 1715              	.LVL142:
 310:bluetooth_rxtx.c **** 		*data_len = 1;
 1716              		.loc 1 310 31 view .LVU586
 1717 0156 00F00700 		and	r0, r0, #7
 310:bluetooth_rxtx.c **** 		*data_len = 1;
 1718              		.loc 1 310 11 view .LVU587
 1719 015a 2870     		strb	r0, [r5]
 311:bluetooth_rxtx.c **** 		break;
 1720              		.loc 1 311 3 is_stmt 1 view .LVU588
 1721              	.LVL143:
 1722              	.L217:
 599:bluetooth_rxtx.c **** 		}
 1723              		.loc 1 599 4 view .LVU589
 599:bluetooth_rxtx.c **** 		}
 1724              		.loc 1 599 14 is_stmt 0 view .LVU590
 1725 015c 0120     		movs	r0, #1
 1726 015e C0E0     		b	.L219
 1727              	.LVL144:
 1728              	.L128:
 315:bluetooth_rxtx.c **** 			cc2400_set(FREND, 8 | request_params[0]);
 1729              		.loc 1 315 3 is_stmt 1 view .LVU591
 315:bluetooth_rxtx.c **** 			cc2400_set(FREND, 8 | request_params[0]);
 1730              		.loc 1 315 21 is_stmt 0 view .LVU592
 1731 0160 0988     		ldrh	r1, [r1]
 1732              	.LVL145:
 315:bluetooth_rxtx.c **** 			cc2400_set(FREND, 8 | request_params[0]);
 1733              		.loc 1 315 5 view .LVU593
 1734 0162 0729     		cmp	r1, #7
 1735 0164 00F2CF82 		bhi	.L199
 316:bluetooth_rxtx.c **** 		} else {
 1736              		.loc 1 316 4 is_stmt 1 view .LVU594
 1737 0168 0520     		movs	r0, #5
 1738              	.LVL146:
 316:bluetooth_rxtx.c **** 		} else {
 1739              		.loc 1 316 4 is_stmt 0 view .LVU595
 1740 016a 41F00801 		orr	r1, r1, #8
 1741              	.L226:
 621:bluetooth_rxtx.c **** 		break;
 1742              		.loc 1 621 3 view .LVU596
ARM GAS  /tmp/ccwF1FQu.s 			page 77


 1743 016e FFF7FEFF 		bl	cc2400_set
 1744              	.LVL147:
 622:bluetooth_rxtx.c **** 
 1745              		.loc 1 622 3 is_stmt 1 view .LVU597
 1746 0172 D0E7     		b	.L214
 1747              	.LVL148:
 1748              	.L126:
 323:bluetooth_rxtx.c **** 		break;
 1749              		.loc 1 323 3 view .LVU598
 323:bluetooth_rxtx.c **** 		break;
 1750              		.loc 1 323 18 is_stmt 0 view .LVU599
 1751 0174 0522     		movs	r2, #5
 1752              	.LVL149:
 323:bluetooth_rxtx.c **** 		break;
 1753              		.loc 1 323 18 view .LVU600
 1754 0176 7F4B     		ldr	r3, .L244
 1755 0178 E8E7     		b	.L215
 1756              	.LVL150:
 1757              	.L127:
 327:bluetooth_rxtx.c **** 		break;
 1758              		.loc 1 327 3 is_stmt 1 view .LVU601
 327:bluetooth_rxtx.c **** 		break;
 1759              		.loc 1 327 18 is_stmt 0 view .LVU602
 1760 017a 0622     		movs	r2, #6
 1761              	.LVL151:
 327:bluetooth_rxtx.c **** 		break;
 1762              		.loc 1 327 18 view .LVU603
 1763 017c 7D4B     		ldr	r3, .L244
 1764 017e E5E7     		b	.L215
 1765              	.LVL152:
 1766              	.L125:
 332:bluetooth_rxtx.c **** 		data[1] = rr.request_pa;
 1767              		.loc 1 332 3 is_stmt 1 view .LVU604
 332:bluetooth_rxtx.c **** 		data[1] = rr.request_pa;
 1768              		.loc 1 332 15 is_stmt 0 view .LVU605
 1769 0180 834B     		ldr	r3, .L244+28
 1770 0182 1A78     		ldrb	r2, [r3]	@ zero_extendqisi2
 1771              	.LVL153:
 332:bluetooth_rxtx.c **** 		data[1] = rr.request_pa;
 1772              		.loc 1 332 11 view .LVU606
 1773 0184 2A70     		strb	r2, [r5]
 1774              	.LVL154:
 333:bluetooth_rxtx.c **** 		data[2] = rr.request_num;
 1775              		.loc 1 333 3 is_stmt 1 view .LVU607
 333:bluetooth_rxtx.c **** 		data[2] = rr.request_num;
 1776              		.loc 1 333 15 is_stmt 0 view .LVU608
 1777 0186 5A78     		ldrb	r2, [r3, #1]	@ zero_extendqisi2
 333:bluetooth_rxtx.c **** 		data[2] = rr.request_num;
 1778              		.loc 1 333 11 view .LVU609
 1779 0188 6A70     		strb	r2, [r5, #1]
 334:bluetooth_rxtx.c **** 		data[3] = rr.reply_pa;
 1780              		.loc 1 334 3 is_stmt 1 view .LVU610
 334:bluetooth_rxtx.c **** 		data[3] = rr.reply_pa;
 1781              		.loc 1 334 15 is_stmt 0 view .LVU611
 1782 018a 9A78     		ldrb	r2, [r3, #2]	@ zero_extendqisi2
 334:bluetooth_rxtx.c **** 		data[3] = rr.reply_pa;
 1783              		.loc 1 334 11 view .LVU612
ARM GAS  /tmp/ccwF1FQu.s 			page 78


 1784 018c AA70     		strb	r2, [r5, #2]
 335:bluetooth_rxtx.c **** 		data[4] = rr.reply_num;
 1785              		.loc 1 335 3 is_stmt 1 view .LVU613
 335:bluetooth_rxtx.c **** 		data[4] = rr.reply_num;
 1786              		.loc 1 335 15 is_stmt 0 view .LVU614
 1787 018e DA78     		ldrb	r2, [r3, #3]	@ zero_extendqisi2
 335:bluetooth_rxtx.c **** 		data[4] = rr.reply_num;
 1788              		.loc 1 335 11 view .LVU615
 1789 0190 EA70     		strb	r2, [r5, #3]
 336:bluetooth_rxtx.c **** 		*data_len = 5;
 1790              		.loc 1 336 3 is_stmt 1 view .LVU616
 336:bluetooth_rxtx.c **** 		*data_len = 5;
 1791              		.loc 1 336 15 is_stmt 0 view .LVU617
 1792 0192 1B79     		ldrb	r3, [r3, #4]	@ zero_extendqisi2
 336:bluetooth_rxtx.c **** 		*data_len = 5;
 1793              		.loc 1 336 11 view .LVU618
 1794 0194 2B71     		strb	r3, [r5, #4]
 337:bluetooth_rxtx.c **** 		break;
 1795              		.loc 1 337 3 is_stmt 1 view .LVU619
 337:bluetooth_rxtx.c **** 		break;
 1796              		.loc 1 337 13 is_stmt 0 view .LVU620
 1797 0196 0523     		movs	r3, #5
 1798              	.LVL155:
 1799              	.L223:
 648:bluetooth_rxtx.c **** 		break;
 1800              		.loc 1 648 13 view .LVU621
 1801 0198 2360     		str	r3, [r4]
 649:bluetooth_rxtx.c **** 
 1802              		.loc 1 649 3 is_stmt 1 view .LVU622
 1803 019a BCE7     		b	.L214
 1804              	.LVL156:
 1805              	.L135:
 341:bluetooth_rxtx.c **** 		break;
 1806              		.loc 1 341 3 view .LVU623
 341:bluetooth_rxtx.c **** 		break;
 1807              		.loc 1 341 18 is_stmt 0 view .LVU624
 1808 019c 0022     		movs	r2, #0
 1809              	.LVL157:
 341:bluetooth_rxtx.c **** 		break;
 1810              		.loc 1 341 18 view .LVU625
 1811 019e 754B     		ldr	r3, .L244
 1812 01a0 D4E7     		b	.L215
 1813              	.LVL158:
 1814              	.L134:
 345:bluetooth_rxtx.c **** 		*data_len = 1;
 1815              		.loc 1 345 3 is_stmt 1 view .LVU626
 345:bluetooth_rxtx.c **** 		*data_len = 1;
 1816              		.loc 1 345 11 is_stmt 0 view .LVU627
 1817 01a2 744B     		ldr	r3, .L244
 1818              	.L235:
 448:bluetooth_rxtx.c **** 		*data_len = 1;
 1819              		.loc 1 448 11 view .LVU628
 1820 01a4 1B78     		ldrb	r3, [r3]	@ zero_extendqisi2
 1821 01a6 8EE7     		b	.L220
 1822              	.L133:
 350:bluetooth_rxtx.c **** 		break;
 1823              		.loc 1 350 3 is_stmt 1 view .LVU629
ARM GAS  /tmp/ccwF1FQu.s 			page 79


 350:bluetooth_rxtx.c **** 		break;
 1824              		.loc 1 350 14 is_stmt 0 view .LVU630
 1825 01a8 0A78     		ldrb	r2, [r1]	@ zero_extendqisi2
 1826              	.LVL159:
 350:bluetooth_rxtx.c **** 		break;
 1827              		.loc 1 350 14 view .LVU631
 1828 01aa 724B     		ldr	r3, .L244
 1829 01ac 1A70     		strb	r2, [r3]
 351:bluetooth_rxtx.c **** 
 1830              		.loc 1 351 3 is_stmt 1 view .LVU632
 1831 01ae B2E7     		b	.L214
 1832              	.LVL160:
 1833              	.L145:
 354:bluetooth_rxtx.c **** 		data[1] = (channel >> 8) & 0xFF;
 1834              		.loc 1 354 3 view .LVU633
 354:bluetooth_rxtx.c **** 		data[1] = (channel >> 8) & 0xFF;
 1835              		.loc 1 354 11 is_stmt 0 view .LVU634
 1836 01b0 784B     		ldr	r3, .L244+32
 1837 01b2 B3F84C20 		ldrh	r2, [r3, #76]
 1838              	.LVL161:
 354:bluetooth_rxtx.c **** 		data[1] = (channel >> 8) & 0xFF;
 1839              		.loc 1 354 11 view .LVU635
 1840 01b6 2A70     		strb	r2, [r5]
 1841              	.LVL162:
 355:bluetooth_rxtx.c **** 		*data_len = 2;
 1842              		.loc 1 355 3 is_stmt 1 view .LVU636
 355:bluetooth_rxtx.c **** 		*data_len = 2;
 1843              		.loc 1 355 11 is_stmt 0 view .LVU637
 1844 01b8 B3F84C30 		ldrh	r3, [r3, #76]
 1845 01bc C3F30723 		ubfx	r3, r3, #8, #8
 1846              	.L243:
 579:bluetooth_rxtx.c **** 		*data_len = 2;
 1847              		.loc 1 579 11 view .LVU638
 1848 01c0 6B70     		strb	r3, [r5, #1]
 580:bluetooth_rxtx.c **** 		break;
 1849              		.loc 1 580 3 is_stmt 1 view .LVU639
 1850              	.LVL163:
 1851              	.L236:
 617:bluetooth_rxtx.c **** 		break;
 1852              		.loc 1 617 3 view .LVU640
 617:bluetooth_rxtx.c **** 		break;
 1853              		.loc 1 617 13 is_stmt 0 view .LVU641
 1854 01c2 0223     		movs	r3, #2
 1855 01c4 E8E7     		b	.L223
 1856              	.LVL164:
 1857              	.L144:
 360:bluetooth_rxtx.c **** 		/* bluetooth band sweep mode, start at channel 2402 */
 1858              		.loc 1 360 3 is_stmt 1 view .LVU642
 360:bluetooth_rxtx.c **** 		/* bluetooth band sweep mode, start at channel 2402 */
 1859              		.loc 1 360 37 is_stmt 0 view .LVU643
 1860 01c6 0A88     		ldrh	r2, [r1]
 1861              	.LVL165:
 362:bluetooth_rxtx.c **** 			hop_mode = HOP_SWEEP;
 1862              		.loc 1 362 6 view .LVU644
 1863 01c8 40F6EA21 		movw	r1, #2794
 1864              	.LVL166:
 360:bluetooth_rxtx.c **** 		/* bluetooth band sweep mode, start at channel 2402 */
ARM GAS  /tmp/ccwF1FQu.s 			page 80


 1865              		.loc 1 360 21 view .LVU645
 1866 01cc 694B     		ldr	r3, .L244
 1867 01ce DA81     		strh	r2, [r3, #14]	@ movhi
 362:bluetooth_rxtx.c **** 			hop_mode = HOP_SWEEP;
 1868              		.loc 1 362 3 is_stmt 1 view .LVU646
 362:bluetooth_rxtx.c **** 			hop_mode = HOP_SWEEP;
 1869              		.loc 1 362 25 is_stmt 0 view .LVU647
 1870 01d0 DA89     		ldrh	r2, [r3, #14]
 1871 01d2 92B2     		uxth	r2, r2
 362:bluetooth_rxtx.c **** 			hop_mode = HOP_SWEEP;
 1872              		.loc 1 362 6 view .LVU648
 1873 01d4 8A42     		cmp	r2, r1
 1874 01d6 18D9     		bls	.L163
 363:bluetooth_rxtx.c **** 			requested_channel = 2402;
 1875              		.loc 1 363 4 is_stmt 1 view .LVU649
 363:bluetooth_rxtx.c **** 			requested_channel = 2402;
 1876              		.loc 1 363 13 is_stmt 0 view .LVU650
 1877 01d8 0122     		movs	r2, #1
 1878 01da 9A72     		strb	r2, [r3, #10]
 364:bluetooth_rxtx.c **** 		}
 1879              		.loc 1 364 4 is_stmt 1 view .LVU651
 364:bluetooth_rxtx.c **** 		}
 1880              		.loc 1 364 22 is_stmt 0 view .LVU652
 1881 01dc 40F66212 		movw	r2, #2402
 1882              	.L166:
 370:bluetooth_rxtx.c **** 		}
 1883              		.loc 1 370 22 discriminator 4 view .LVU653
 1884 01e0 DA81     		strh	r2, [r3, #14]	@ movhi
 373:bluetooth_rxtx.c **** 		if (mode != MODE_BT_FOLLOW_LE) {
 1885              		.loc 1 373 3 is_stmt 1 discriminator 4 view .LVU654
 373:bluetooth_rxtx.c **** 		if (mode != MODE_BT_FOLLOW_LE) {
 1886              		.loc 1 373 18 is_stmt 0 discriminator 4 view .LVU655
 1887 01e2 D989     		ldrh	r1, [r3, #14]
 1888 01e4 6B4A     		ldr	r2, .L244+32
 1889 01e6 89B2     		uxth	r1, r1
 1890 01e8 A2F85010 		strh	r1, [r2, #80]	@ movhi
 374:bluetooth_rxtx.c **** 			channel = requested_channel;
 1891              		.loc 1 374 3 is_stmt 1 discriminator 4 view .LVU656
 374:bluetooth_rxtx.c **** 			channel = requested_channel;
 1892              		.loc 1 374 12 is_stmt 0 discriminator 4 view .LVU657
 1893 01ec 597C     		ldrb	r1, [r3, #17]	@ zero_extendqisi2
 374:bluetooth_rxtx.c **** 			channel = requested_channel;
 1894              		.loc 1 374 6 discriminator 4 view .LVU658
 1895 01ee 0929     		cmp	r1, #9
 1896 01f0 91D0     		beq	.L214
 375:bluetooth_rxtx.c **** 			requested_channel = 0;
 1897              		.loc 1 375 4 is_stmt 1 view .LVU659
 375:bluetooth_rxtx.c **** 			requested_channel = 0;
 1898              		.loc 1 375 12 is_stmt 0 view .LVU660
 1899 01f2 D989     		ldrh	r1, [r3, #14]
 1900 01f4 89B2     		uxth	r1, r1
 1901 01f6 A2F84C10 		strh	r1, [r2, #76]	@ movhi
 376:bluetooth_rxtx.c **** 
 1902              		.loc 1 376 4 is_stmt 1 view .LVU661
 376:bluetooth_rxtx.c **** 
 1903              		.loc 1 376 22 is_stmt 0 view .LVU662
 1904 01fa 0021     		movs	r1, #0
ARM GAS  /tmp/ccwF1FQu.s 			page 81


 1905 01fc D981     		strh	r1, [r3, #14]	@ movhi
 380:bluetooth_rxtx.c **** 		}
 1906              		.loc 1 380 4 is_stmt 1 view .LVU663
 1907 01fe B2F84C00 		ldrh	r0, [r2, #76]
 1908              	.LVL167:
 1909              	.L227:
 610:bluetooth_rxtx.c **** 		break;
 1910              		.loc 1 610 3 is_stmt 0 view .LVU664
 1911 0202 80B2     		uxth	r0, r0
 1912 0204 FFF7FEFF 		bl	cs_threshold_calc_and_set
 1913              	.LVL168:
 611:bluetooth_rxtx.c **** 
 1914              		.loc 1 611 3 is_stmt 1 view .LVU665
 1915 0208 85E7     		b	.L214
 1916              	.LVL169:
 1917              	.L163:
 368:bluetooth_rxtx.c **** 			requested_channel = MAX(requested_channel, MIN_FREQ);
 1918              		.loc 1 368 4 view .LVU666
 368:bluetooth_rxtx.c **** 			requested_channel = MAX(requested_channel, MIN_FREQ);
 1919              		.loc 1 368 13 is_stmt 0 view .LVU667
 1920 020a 0022     		movs	r2, #0
 1921 020c 9A72     		strb	r2, [r3, #10]
 369:bluetooth_rxtx.c **** 			requested_channel = MIN(requested_channel, MAX_FREQ);
 1922              		.loc 1 369 4 is_stmt 1 view .LVU668
 369:bluetooth_rxtx.c **** 			requested_channel = MIN(requested_channel, MAX_FREQ);
 1923              		.loc 1 369 22 is_stmt 0 view .LVU669
 1924 020e 40F6DC02 		movw	r2, #2268
 369:bluetooth_rxtx.c **** 			requested_channel = MIN(requested_channel, MAX_FREQ);
 1925              		.loc 1 369 24 view .LVU670
 1926 0212 D989     		ldrh	r1, [r3, #14]
 1927 0214 89B2     		uxth	r1, r1
 369:bluetooth_rxtx.c **** 			requested_channel = MIN(requested_channel, MAX_FREQ);
 1928              		.loc 1 369 22 view .LVU671
 1929 0216 9142     		cmp	r1, r2
 370:bluetooth_rxtx.c **** 		}
 1930              		.loc 1 370 22 view .LVU672
 1931 0218 40F6E921 		movw	r1, #2793
 369:bluetooth_rxtx.c **** 			requested_channel = MIN(requested_channel, MAX_FREQ);
 1932              		.loc 1 369 22 view .LVU673
 1933 021c 84BF     		itt	hi
 1934 021e DA89     		ldrhhi	r2, [r3, #14]
 1935 0220 92B2     		uxthhi	r2, r2
 1936 0222 DA81     		strh	r2, [r3, #14]	@ movhi
 370:bluetooth_rxtx.c **** 		}
 1937              		.loc 1 370 4 is_stmt 1 view .LVU674
 370:bluetooth_rxtx.c **** 		}
 1938              		.loc 1 370 24 is_stmt 0 view .LVU675
 1939 0224 DA89     		ldrh	r2, [r3, #14]
 1940 0226 92B2     		uxth	r2, r2
 370:bluetooth_rxtx.c **** 		}
 1941              		.loc 1 370 22 view .LVU676
 1942 0228 8A42     		cmp	r2, r1
 1943 022a 96BF     		itet	ls
 1944 022c DA89     		ldrhls	r2, [r3, #14]
 1945 022e 40F6EA22 		movwhi	r2, #2794
 1946 0232 92B2     		uxthls	r2, r2
 1947 0234 D4E7     		b	.L166
ARM GAS  /tmp/ccwF1FQu.s 			page 82


 1948              	.LVL170:
 1949              	.L132:
 385:bluetooth_rxtx.c **** 		*data_len = 0; /* should never return */
 1950              		.loc 1 385 3 is_stmt 1 view .LVU677
 1951 0236 FFF7FEFF 		bl	set_isp
 1952              	.LVL171:
 386:bluetooth_rxtx.c **** 		break;
 1953              		.loc 1 386 3 view .LVU678
 1954              	.L222:
 648:bluetooth_rxtx.c **** 		break;
 1955              		.loc 1 648 3 view .LVU679
 648:bluetooth_rxtx.c **** 		break;
 1956              		.loc 1 648 13 is_stmt 0 view .LVU680
 1957 023a 0023     		movs	r3, #0
 1958 023c ACE7     		b	.L223
 1959              	.LVL172:
 1960              	.L131:
 390:bluetooth_rxtx.c **** 		requested_mode = MODE_RESET;
 1961              		.loc 1 390 3 is_stmt 1 view .LVU681
 390:bluetooth_rxtx.c **** 		requested_mode = MODE_RESET;
 1962              		.loc 1 390 19 is_stmt 0 view .LVU682
 1963 023e 564B     		ldr	r3, .L244+36
 1964 0240 564A     		ldr	r2, .L244+40
 1965              	.LVL173:
 390:bluetooth_rxtx.c **** 		requested_mode = MODE_RESET;
 1966              		.loc 1 390 19 view .LVU683
 1967 0242 1A60     		str	r2, [r3]
 1968              	.L221:
 391:bluetooth_rxtx.c **** 		break;
 1969              		.loc 1 391 3 is_stmt 1 view .LVU684
 391:bluetooth_rxtx.c **** 		break;
 1970              		.loc 1 391 18 is_stmt 0 view .LVU685
 1971 0244 0B22     		movs	r2, #11
 1972 0246 4B4B     		ldr	r3, .L244
 1973 0248 80E7     		b	.L215
 1974              	.LVL174:
 1975              	.L130:
 395:bluetooth_rxtx.c **** 				request_params[1] < 2049 || request_params[1] > 3072 ||
 1976              		.loc 1 395 3 is_stmt 1 view .LVU686
 395:bluetooth_rxtx.c **** 				request_params[1] < 2049 || request_params[1] > 3072 ||
 1977              		.loc 1 395 6 is_stmt 0 view .LVU687
 1978 024a 6FF40060 		mvn	r0, #2048
 1979              	.LVL175:
 395:bluetooth_rxtx.c **** 				request_params[1] < 2049 || request_params[1] > 3072 ||
 1980              		.loc 1 395 21 view .LVU688
 1981 024e 0A88     		ldrh	r2, [r1]
 1982              	.LVL176:
 395:bluetooth_rxtx.c **** 				request_params[1] < 2049 || request_params[1] > 3072 ||
 1983              		.loc 1 395 6 view .LVU689
 1984 0250 1318     		adds	r3, r2, r0
 1985 0252 B3F5806F 		cmp	r3, #1024
 1986 0256 80F05682 		bcs	.L199
 396:bluetooth_rxtx.c **** 				request_params[1] < request_params[0])
 1987              		.loc 1 396 19 discriminator 1 view .LVU690
 1988 025a 4B88     		ldrh	r3, [r1, #2]
 395:bluetooth_rxtx.c **** 				request_params[1] < 2049 || request_params[1] > 3072 ||
 1989              		.loc 1 395 60 discriminator 1 view .LVU691
ARM GAS  /tmp/ccwF1FQu.s 			page 83


 1990 025c 6FF40061 		mvn	r1, #2048
 1991              	.LVL177:
 395:bluetooth_rxtx.c **** 				request_params[1] < 2049 || request_params[1] > 3072 ||
 1992              		.loc 1 395 60 discriminator 1 view .LVU692
 1993 0260 5918     		adds	r1, r3, r1
 1994 0262 B1F5806F 		cmp	r1, #1024
 1995 0266 80F04E82 		bcs	.L199
 396:bluetooth_rxtx.c **** 				request_params[1] < request_params[0])
 1996              		.loc 1 396 58 discriminator 1 view .LVU693
 1997 026a 9A42     		cmp	r2, r3
 1998 026c 00F24B82 		bhi	.L199
 399:bluetooth_rxtx.c **** 		high_freq = request_params[1];
 1999              		.loc 1 399 3 is_stmt 1 view .LVU694
 399:bluetooth_rxtx.c **** 		high_freq = request_params[1];
 2000              		.loc 1 399 12 is_stmt 0 view .LVU695
 2001 0270 4849     		ldr	r1, .L244+32
 2002 0272 A1F85220 		strh	r2, [r1, #82]	@ movhi
 400:bluetooth_rxtx.c **** 		requested_mode = MODE_SPECAN;
 2003              		.loc 1 400 3 is_stmt 1 view .LVU696
 400:bluetooth_rxtx.c **** 		requested_mode = MODE_SPECAN;
 2004              		.loc 1 400 13 is_stmt 0 view .LVU697
 2005 0276 A1F85430 		strh	r3, [r1, #84]	@ movhi
 401:bluetooth_rxtx.c **** 		*data_len = 0;
 2006              		.loc 1 401 3 is_stmt 1 view .LVU698
 401:bluetooth_rxtx.c **** 		*data_len = 0;
 2007              		.loc 1 401 18 is_stmt 0 view .LVU699
 2008 027a 0422     		movs	r2, #4
 2009 027c 3D4B     		ldr	r3, .L244
 2010 027e 1CE7     		b	.L225
 2011              	.LVL178:
 2012              	.L92:
 406:bluetooth_rxtx.c **** 		*data_len = 0;
 2013              		.loc 1 406 3 is_stmt 1 view .LVU700
 406:bluetooth_rxtx.c **** 		*data_len = 0;
 2014              		.loc 1 406 18 is_stmt 0 view .LVU701
 2015 0280 0F22     		movs	r2, #15
 2016              	.LVL179:
 406:bluetooth_rxtx.c **** 		*data_len = 0;
 2017              		.loc 1 406 18 view .LVU702
 2018 0282 3C4B     		ldr	r3, .L244
 2019 0284 19E7     		b	.L225
 2020              	.LVL180:
 2021              	.L123:
 411:bluetooth_rxtx.c **** 			return 0;
 2022              		.loc 1 411 3 is_stmt 1 view .LVU703
 411:bluetooth_rxtx.c **** 			return 0;
 2023              		.loc 1 411 21 is_stmt 0 view .LVU704
 2024 0286 0B88     		ldrh	r3, [r1]
 411:bluetooth_rxtx.c **** 			return 0;
 2025              		.loc 1 411 6 view .LVU705
 2026 0288 B3F5807F 		cmp	r3, #256
 2027 028c 00F23B82 		bhi	.L199
 413:bluetooth_rxtx.c **** 		requested_mode = MODE_LED_SPECAN;
 2028              		.loc 1 413 3 is_stmt 1 view .LVU706
 413:bluetooth_rxtx.c **** 		requested_mode = MODE_LED_SPECAN;
 2029              		.loc 1 413 18 is_stmt 0 view .LVU707
 2030 0290 404A     		ldr	r2, .L244+32
ARM GAS  /tmp/ccwF1FQu.s 			page 84


 2031              	.LVL181:
 413:bluetooth_rxtx.c **** 		requested_mode = MODE_LED_SPECAN;
 2032              		.loc 1 413 23 view .LVU708
 2033 0292 C3F13603 		rsb	r3, r3, #54
 2034 0296 5BB2     		sxtb	r3, r3
 413:bluetooth_rxtx.c **** 		requested_mode = MODE_LED_SPECAN;
 2035              		.loc 1 413 18 view .LVU709
 2036 0298 82F85630 		strb	r3, [r2, #86]
 414:bluetooth_rxtx.c **** 		*data_len = 0;
 2037              		.loc 1 414 3 is_stmt 1 view .LVU710
 414:bluetooth_rxtx.c **** 		*data_len = 0;
 2038              		.loc 1 414 18 is_stmt 0 view .LVU711
 2039 029c 0722     		movs	r2, #7
 2040 029e 354B     		ldr	r3, .L244
 2041 02a0 0BE7     		b	.L225
 2042              	.LVL182:
 2043              	.L124:
 419:bluetooth_rxtx.c **** 		data[1] = 0x00;
 2044              		.loc 1 419 3 is_stmt 1 view .LVU712
 419:bluetooth_rxtx.c **** 		data[1] = 0x00;
 2045              		.loc 1 419 11 is_stmt 0 view .LVU713
 2046 02a2 0023     		movs	r3, #0
 422:bluetooth_rxtx.c **** 		data[2] = length;
 2047              		.loc 1 422 16 view .LVU714
 2048 02a4 3E48     		ldr	r0, .L244+44
 2049              	.LVL183:
 419:bluetooth_rxtx.c **** 		data[1] = 0x00;
 2050              		.loc 1 419 11 view .LVU715
 2051 02a6 1370     		strb	r3, [r2]
 2052              	.LVL184:
 420:bluetooth_rxtx.c **** 
 2053              		.loc 1 420 3 is_stmt 1 view .LVU716
 420:bluetooth_rxtx.c **** 
 2054              		.loc 1 420 11 is_stmt 0 view .LVU717
 2055 02a8 5370     		strb	r3, [r2, #1]
 422:bluetooth_rxtx.c **** 		data[2] = length;
 2056              		.loc 1 422 3 is_stmt 1 view .LVU718
 422:bluetooth_rxtx.c **** 		data[2] = length;
 2057              		.loc 1 422 16 is_stmt 0 view .LVU719
 2058 02aa FFF7FEFF 		bl	strlen
 2059              	.LVL185:
 422:bluetooth_rxtx.c **** 		data[2] = length;
 2060              		.loc 1 422 16 view .LVU720
 2061 02ae C6B2     		uxtb	r6, r0
 2062              	.LVL186:
 423:bluetooth_rxtx.c **** 
 2063              		.loc 1 423 3 is_stmt 1 view .LVU721
 425:bluetooth_rxtx.c **** 
 2064              		.loc 1 425 3 is_stmt 0 view .LVU722
 2065 02b0 3246     		mov	r2, r6
 422:bluetooth_rxtx.c **** 		data[2] = length;
 2066              		.loc 1 422 12 view .LVU723
 2067 02b2 A870     		strb	r0, [r5, #2]
 425:bluetooth_rxtx.c **** 
 2068              		.loc 1 425 3 is_stmt 1 view .LVU724
 2069 02b4 3A49     		ldr	r1, .L244+44
 2070 02b6 E81C     		adds	r0, r5, #3
ARM GAS  /tmp/ccwF1FQu.s 			page 85


 2071 02b8 FFF7FEFF 		bl	memcpy
 2072              	.LVL187:
 427:bluetooth_rxtx.c **** 		break;
 2073              		.loc 1 427 3 view .LVU725
 427:bluetooth_rxtx.c **** 		break;
 2074              		.loc 1 427 21 is_stmt 0 view .LVU726
 2075 02bc 0336     		adds	r6, r6, #3
 2076              	.LVL188:
 2077              	.L228:
 434:bluetooth_rxtx.c **** 		break;
 2078              		.loc 1 434 13 view .LVU727
 2079 02be 2660     		str	r6, [r4]
 435:bluetooth_rxtx.c **** 
 2080              		.loc 1 435 3 is_stmt 1 view .LVU728
 2081 02c0 29E7     		b	.L214
 2082              	.LVL189:
 2083              	.L102:
 431:bluetooth_rxtx.c **** 		data[0] = length;
 2084              		.loc 1 431 3 view .LVU729
 431:bluetooth_rxtx.c **** 		data[0] = length;
 2085              		.loc 1 431 16 is_stmt 0 view .LVU730
 2086 02c2 3848     		ldr	r0, .L244+48
 2087              	.LVL190:
 431:bluetooth_rxtx.c **** 		data[0] = length;
 2088              		.loc 1 431 16 view .LVU731
 2089 02c4 FFF7FEFF 		bl	strlen
 2090              	.LVL191:
 431:bluetooth_rxtx.c **** 		data[0] = length;
 2091              		.loc 1 431 16 view .LVU732
 2092 02c8 0346     		mov	r3, r0
 2093 02ca C6B2     		uxtb	r6, r0
 2094              	.LVL192:
 432:bluetooth_rxtx.c **** 		memcpy(&data[1], compile_info, length);
 2095              		.loc 1 432 3 is_stmt 1 view .LVU733
 431:bluetooth_rxtx.c **** 		data[0] = length;
 2096              		.loc 1 431 12 is_stmt 0 view .LVU734
 2097 02cc 2846     		mov	r0, r5
 433:bluetooth_rxtx.c **** 		*data_len = 1 + length;
 2098              		.loc 1 433 3 view .LVU735
 2099 02ce 3246     		mov	r2, r6
 2100 02d0 3449     		ldr	r1, .L244+48
 431:bluetooth_rxtx.c **** 		data[0] = length;
 2101              		.loc 1 431 12 view .LVU736
 2102 02d2 00F8013B 		strb	r3, [r0], #1
 433:bluetooth_rxtx.c **** 		*data_len = 1 + length;
 2103              		.loc 1 433 3 is_stmt 1 view .LVU737
 2104 02d6 FFF7FEFF 		bl	memcpy
 2105              	.LVL193:
 434:bluetooth_rxtx.c **** 		break;
 2106              		.loc 1 434 3 view .LVU738
 434:bluetooth_rxtx.c **** 		break;
 2107              		.loc 1 434 17 is_stmt 0 view .LVU739
 2108 02da 0136     		adds	r6, r6, #1
 2109              	.LVL194:
 434:bluetooth_rxtx.c **** 		break;
 2110              		.loc 1 434 17 view .LVU740
 2111 02dc EFE7     		b	.L228
ARM GAS  /tmp/ccwF1FQu.s 			page 86


 2112              	.LVL195:
 2113              	.L122:
 438:bluetooth_rxtx.c **** 		*data_len = 1;
 2114              		.loc 1 438 3 is_stmt 1 view .LVU741
 438:bluetooth_rxtx.c **** 		*data_len = 1;
 2115              		.loc 1 438 11 is_stmt 0 view .LVU742
 2116 02de 0120     		movs	r0, #1
 2117              	.LVL196:
 438:bluetooth_rxtx.c **** 		*data_len = 1;
 2118              		.loc 1 438 11 view .LVU743
 2119 02e0 1070     		strb	r0, [r2]
 2120              	.LVL197:
 439:bluetooth_rxtx.c **** 		break;
 2121              		.loc 1 439 3 is_stmt 1 view .LVU744
 2122              	.L219:
 599:bluetooth_rxtx.c **** 		}
 2123              		.loc 1 599 14 is_stmt 0 view .LVU745
 2124 02e2 2060     		str	r0, [r4]
 2125 02e4 85E0     		b	.L83
 2126              	.LVL198:
 2127              	.L121:
 443:bluetooth_rxtx.c **** 		cs_threshold_calc_and_set(channel);
 2128              		.loc 1 443 3 is_stmt 1 view .LVU746
 443:bluetooth_rxtx.c **** 		cs_threshold_calc_and_set(channel);
 2129              		.loc 1 443 22 is_stmt 0 view .LVU747
 2130 02e6 0A88     		ldrh	r2, [r1]
 2131              	.LVL199:
 443:bluetooth_rxtx.c **** 		cs_threshold_calc_and_set(channel);
 2132              		.loc 1 443 22 view .LVU748
 2133 02e8 2F4B     		ldr	r3, .L244+52
 2134 02ea 1A70     		strb	r2, [r3]
 444:bluetooth_rxtx.c **** 		break;
 2135              		.loc 1 444 3 is_stmt 1 view .LVU749
 2136              	.LVL200:
 2137              	.L230:
 610:bluetooth_rxtx.c **** 		break;
 2138              		.loc 1 610 3 view .LVU750
 2139 02ec 294B     		ldr	r3, .L244+32
 2140 02ee B3F84C00 		ldrh	r0, [r3, #76]
 2141 02f2 86E7     		b	.L227
 2142              	.LVL201:
 2143              	.L120:
 448:bluetooth_rxtx.c **** 		*data_len = 1;
 2144              		.loc 1 448 3 view .LVU751
 448:bluetooth_rxtx.c **** 		*data_len = 1;
 2145              		.loc 1 448 11 is_stmt 0 view .LVU752
 2146 02f4 2C4B     		ldr	r3, .L244+52
 2147 02f6 55E7     		b	.L235
 2148              	.L119:
 453:bluetooth_rxtx.c **** 		target.syncword = 0;
 2149              		.loc 1 453 3 is_stmt 1 view .LVU753
 453:bluetooth_rxtx.c **** 		target.syncword = 0;
 2150              		.loc 1 453 18 is_stmt 0 view .LVU754
 2151 02f8 0020     		movs	r0, #0
 2152              	.LVL202:
 453:bluetooth_rxtx.c **** 		target.syncword = 0;
 2153              		.loc 1 453 18 view .LVU755
ARM GAS  /tmp/ccwF1FQu.s 			page 87


 2154 02fa 0021     		movs	r1, #0
 2155              	.LVL203:
 453:bluetooth_rxtx.c **** 		target.syncword = 0;
 2156              		.loc 1 453 18 view .LVU756
 2157 02fc 571E     		subs	r7, r2, #1
 454:bluetooth_rxtx.c **** 		for(int i=0; i < 8; i++) {
 2158              		.loc 1 454 19 view .LVU757
 2159 02fe 0022     		movs	r2, #0
 2160              	.LVL204:
 453:bluetooth_rxtx.c **** 		target.syncword = 0;
 2161              		.loc 1 453 18 view .LVU758
 2162 0300 2A4B     		ldr	r3, .L244+56
 2163 0302 C3E90001 		strd	r0, [r3]
 454:bluetooth_rxtx.c **** 		for(int i=0; i < 8; i++) {
 2164              		.loc 1 454 3 is_stmt 1 view .LVU759
 454:bluetooth_rxtx.c **** 		for(int i=0; i < 8; i++) {
 2165              		.loc 1 454 19 is_stmt 0 view .LVU760
 2166 0306 C3E90201 		strd	r0, [r3, #8]
 455:bluetooth_rxtx.c **** 			target.address |= (uint64_t)data[i] << 8*i;
 2167              		.loc 1 455 3 is_stmt 1 view .LVU761
 2168              	.LBB20:
 455:bluetooth_rxtx.c **** 			target.address |= (uint64_t)data[i] << 8*i;
 2169              		.loc 1 455 7 view .LVU762
 2170              	.LVL205:
 455:bluetooth_rxtx.c **** 			target.address |= (uint64_t)data[i] << 8*i;
 2171              		.loc 1 455 16 view .LVU763
 2172              	.L168:
 456:bluetooth_rxtx.c **** 		}
 2173              		.loc 1 456 4 discriminator 3 view .LVU764
 456:bluetooth_rxtx.c **** 		}
 2174              		.loc 1 456 22 is_stmt 0 discriminator 3 view .LVU765
 2175 030a 17F801BF 		ldrb	fp, [r7, #1]!	@ zero_extendqisi2
 2176              	.LVL206:
 456:bluetooth_rxtx.c **** 		}
 2177              		.loc 1 456 40 discriminator 3 view .LVU766
 2178 030e A2F12001 		sub	r1, r2, #32
 2179 0312 C2F12004 		rsb	r4, r2, #32
 2180 0316 2BFA04F4 		lsr	r4, fp, r4
 2181 031a 0BFA01F1 		lsl	r1, fp, r1
 2182 031e 2143     		orrs	r1, r1, r4
 2183 0320 0BFA02F0 		lsl	r0, fp, r2
 2184 0324 0832     		adds	r2, r2, #8
 456:bluetooth_rxtx.c **** 		}
 2185              		.loc 1 456 19 discriminator 3 view .LVU767
 2186 0326 D3E90064 		ldrd	r6, r4, [r3]
 455:bluetooth_rxtx.c **** 			target.address |= (uint64_t)data[i] << 8*i;
 2187              		.loc 1 455 3 discriminator 3 view .LVU768
 2188 032a 402A     		cmp	r2, #64
 456:bluetooth_rxtx.c **** 		}
 2189              		.loc 1 456 19 discriminator 3 view .LVU769
 2190 032c 40EA0600 		orr	r0, r0, r6
 2191 0330 41EA0401 		orr	r1, r1, r4
 2192 0334 C3E90001 		strd	r0, r1, [r3]
 455:bluetooth_rxtx.c **** 			target.address |= (uint64_t)data[i] << 8*i;
 2193              		.loc 1 455 23 is_stmt 1 discriminator 3 view .LVU770
 2194              	.LVL207:
 455:bluetooth_rxtx.c **** 			target.address |= (uint64_t)data[i] << 8*i;
ARM GAS  /tmp/ccwF1FQu.s 			page 88


 2195              		.loc 1 455 16 discriminator 3 view .LVU771
 455:bluetooth_rxtx.c **** 			target.address |= (uint64_t)data[i] << 8*i;
 2196              		.loc 1 455 3 is_stmt 0 discriminator 3 view .LVU772
 2197 0338 E7D1     		bne	.L168
 455:bluetooth_rxtx.c **** 			target.address |= (uint64_t)data[i] << 8*i;
 2198              		.loc 1 455 3 view .LVU773
 2199 033a 0021     		movs	r1, #0
 2200 033c 0735     		adds	r5, r5, #7
 2201              	.LVL208:
 2202              	.L169:
 455:bluetooth_rxtx.c **** 			target.address |= (uint64_t)data[i] << 8*i;
 2203              		.loc 1 455 3 view .LVU774
 2204              	.LBE20:
 2205              	.LBB21:
 459:bluetooth_rxtx.c **** 		}
 2206              		.loc 1 459 4 is_stmt 1 discriminator 3 view .LVU775
 459:bluetooth_rxtx.c **** 		}
 2207              		.loc 1 459 23 is_stmt 0 discriminator 3 view .LVU776
 2208 033e 15F801BF 		ldrb	fp, [r5, #1]!	@ zero_extendqisi2
 2209              	.LVL209:
 459:bluetooth_rxtx.c **** 		}
 2210              		.loc 1 459 43 discriminator 3 view .LVU777
 2211 0342 A1F12004 		sub	r4, r1, #32
 2212 0346 C1F12007 		rsb	r7, r1, #32
 2213 034a 2BFA07F7 		lsr	r7, fp, r7
 2214 034e 0BFA04F4 		lsl	r4, fp, r4
 2215 0352 3C43     		orrs	r4, r4, r7
 2216 0354 0BFA01F6 		lsl	r6, fp, r1
 2217 0358 0831     		adds	r1, r1, #8
 459:bluetooth_rxtx.c **** 		}
 2218              		.loc 1 459 20 discriminator 3 view .LVU778
 2219 035a D3E90227 		ldrd	r2, r7, [r3, #8]
 458:bluetooth_rxtx.c **** 			target.syncword |= (uint64_t)data[i+8] << 8*i;
 2220              		.loc 1 458 3 discriminator 3 view .LVU779
 2221 035e 4029     		cmp	r1, #64
 459:bluetooth_rxtx.c **** 		}
 2222              		.loc 1 459 20 discriminator 3 view .LVU780
 2223 0360 46EA0206 		orr	r6, r6, r2
 2224 0364 44EA0704 		orr	r4, r4, r7
 2225 0368 C3E90264 		strd	r6, r4, [r3, #8]
 458:bluetooth_rxtx.c **** 			target.syncword |= (uint64_t)data[i+8] << 8*i;
 2226              		.loc 1 458 23 is_stmt 1 discriminator 3 view .LVU781
 2227              	.LVL210:
 458:bluetooth_rxtx.c **** 			target.syncword |= (uint64_t)data[i+8] << 8*i;
 2228              		.loc 1 458 16 discriminator 3 view .LVU782
 458:bluetooth_rxtx.c **** 			target.syncword |= (uint64_t)data[i+8] << 8*i;
 2229              		.loc 1 458 3 is_stmt 0 discriminator 3 view .LVU783
 2230 036c E7D1     		bne	.L169
 2231              	.LBE21:
 461:bluetooth_rxtx.c **** 		break;
 2232              		.loc 1 461 3 is_stmt 1 view .LVU784
 2233 036e FFF7FEFF 		bl	precalc
 2234              	.LVL211:
 462:bluetooth_rxtx.c **** 
 2235              		.loc 1 462 3 view .LVU785
 2236 0372 D0E6     		b	.L214
 2237              	.L245:
ARM GAS  /tmp/ccwF1FQu.s 			page 89


 2238              		.align	2
 2239              	.L244:
 2240 0374 00000000 		.word	.LANCHOR1
 2241 0378 34C00920 		.word	537509940
 2242 037c 38C00920 		.word	537509944
 2243 0380 3CC00920 		.word	537509948
 2244 0384 54C00920 		.word	537509972
 2245 0388 58C00920 		.word	537509976
 2246 038c 5CC00920 		.word	537509980
 2247 0390 00000000 		.word	rr
 2248 0394 00000000 		.word	.LANCHOR0
 2249 0398 00000000 		.word	bootloader_ctrl
 2250 039c 21BB0543 		.word	1124449057
 2251 03a0 00000000 		.word	.LC3
 2252 03a4 A7000000 		.word	.LANCHOR2+167
 2253 03a8 00000000 		.word	cs_threshold_req
 2254 03ac 00000000 		.word	target
 2255              	.LVL212:
 2256              	.L118:
 465:bluetooth_rxtx.c **** 		for(int i=0; i < 4; i++) {
 2257              		.loc 1 465 3 view .LVU786
 465:bluetooth_rxtx.c **** 		for(int i=0; i < 4; i++) {
 2258              		.loc 1 465 15 is_stmt 0 view .LVU787
 2259 03b0 0022     		movs	r2, #0
 2260              	.LVL213:
 465:bluetooth_rxtx.c **** 		for(int i=0; i < 4; i++) {
 2261              		.loc 1 465 15 view .LVU788
 2262 03b2 9F4B     		ldr	r3, .L246
 2263 03b4 E81C     		adds	r0, r5, #3
 2264              	.LVL214:
 465:bluetooth_rxtx.c **** 		for(int i=0; i < 4; i++) {
 2265              		.loc 1 465 15 view .LVU789
 2266 03b6 1A60     		str	r2, [r3]
 466:bluetooth_rxtx.c **** 			clkn_offset <<= 8;
 2267              		.loc 1 466 3 is_stmt 1 view .LVU790
 2268              	.LBB22:
 466:bluetooth_rxtx.c **** 			clkn_offset <<= 8;
 2269              		.loc 1 466 7 view .LVU791
 2270              	.LVL215:
 466:bluetooth_rxtx.c **** 			clkn_offset <<= 8;
 2271              		.loc 1 466 16 view .LVU792
 2272 03b8 6A1E     		subs	r2, r5, #1
 2273              	.LVL216:
 2274              	.L170:
 467:bluetooth_rxtx.c **** 			clkn_offset |= data[i];
 2275              		.loc 1 467 4 discriminator 3 view .LVU793
 467:bluetooth_rxtx.c **** 			clkn_offset |= data[i];
 2276              		.loc 1 467 16 is_stmt 0 discriminator 3 view .LVU794
 2277 03ba 1968     		ldr	r1, [r3]
 2278 03bc 0902     		lsls	r1, r1, #8
 2279 03be 1960     		str	r1, [r3]
 468:bluetooth_rxtx.c **** 		}
 2280              		.loc 1 468 4 is_stmt 1 discriminator 3 view .LVU795
 468:bluetooth_rxtx.c **** 		}
 2281              		.loc 1 468 23 is_stmt 0 discriminator 3 view .LVU796
 2282 03c0 12F8011F 		ldrb	r1, [r2, #1]!	@ zero_extendqisi2
 2283              	.LVL217:
ARM GAS  /tmp/ccwF1FQu.s 			page 90


 468:bluetooth_rxtx.c **** 		}
 2284              		.loc 1 468 16 discriminator 3 view .LVU797
 2285 03c4 1C68     		ldr	r4, [r3]
 466:bluetooth_rxtx.c **** 			clkn_offset <<= 8;
 2286              		.loc 1 466 3 discriminator 3 view .LVU798
 2287 03c6 9042     		cmp	r0, r2
 468:bluetooth_rxtx.c **** 		}
 2288              		.loc 1 468 16 discriminator 3 view .LVU799
 2289 03c8 41EA0401 		orr	r1, r1, r4
 2290 03cc 1960     		str	r1, [r3]
 466:bluetooth_rxtx.c **** 			clkn_offset <<= 8;
 2291              		.loc 1 466 23 is_stmt 1 discriminator 3 view .LVU800
 2292              	.LVL218:
 466:bluetooth_rxtx.c **** 			clkn_offset <<= 8;
 2293              		.loc 1 466 16 discriminator 3 view .LVU801
 466:bluetooth_rxtx.c **** 			clkn_offset <<= 8;
 2294              		.loc 1 466 3 is_stmt 0 discriminator 3 view .LVU802
 2295 03ce F4D1     		bne	.L170
 2296              	.LBE22:
 470:bluetooth_rxtx.c **** 		dma_discard = 1;
 2297              		.loc 1 470 3 is_stmt 1 view .LVU803
 470:bluetooth_rxtx.c **** 		dma_discard = 1;
 2298              		.loc 1 470 12 is_stmt 0 view .LVU804
 2299 03d0 0222     		movs	r2, #2
 2300              	.LVL219:
 472:bluetooth_rxtx.c **** 		clk100ns_offset = (data[4] << 8) | (data[5] << 0);
 2301              		.loc 1 472 3 view .LVU805
 2302 03d2 4FF08051 		mov	r1, #268435456
 471:bluetooth_rxtx.c **** 		DIO_SSEL_SET;
 2303              		.loc 1 471 15 view .LVU806
 2304 03d6 0120     		movs	r0, #1
 470:bluetooth_rxtx.c **** 		dma_discard = 1;
 2305              		.loc 1 470 12 view .LVU807
 2306 03d8 964B     		ldr	r3, .L246+4
 2307 03da 9A72     		strb	r2, [r3, #10]
 471:bluetooth_rxtx.c **** 		DIO_SSEL_SET;
 2308              		.loc 1 471 3 is_stmt 1 view .LVU808
 472:bluetooth_rxtx.c **** 		clk100ns_offset = (data[4] << 8) | (data[5] << 0);
 2309              		.loc 1 472 3 is_stmt 0 view .LVU809
 2310 03dc 964A     		ldr	r2, .L246+8
 471:bluetooth_rxtx.c **** 		DIO_SSEL_SET;
 2311              		.loc 1 471 15 view .LVU810
 2312 03de 1874     		strb	r0, [r3, #16]
 472:bluetooth_rxtx.c **** 		clk100ns_offset = (data[4] << 8) | (data[5] << 0);
 2313              		.loc 1 472 3 is_stmt 1 view .LVU811
 2314 03e0 1160     		str	r1, [r2]
 473:bluetooth_rxtx.c **** 		requested_mode = MODE_BT_FOLLOW;
 2315              		.loc 1 473 3 view .LVU812
 473:bluetooth_rxtx.c **** 		requested_mode = MODE_BT_FOLLOW;
 2316              		.loc 1 473 26 is_stmt 0 view .LVU813
 2317 03e2 2979     		ldrb	r1, [r5, #4]	@ zero_extendqisi2
 473:bluetooth_rxtx.c **** 		requested_mode = MODE_BT_FOLLOW;
 2318              		.loc 1 473 43 view .LVU814
 2319 03e4 6A79     		ldrb	r2, [r5, #5]	@ zero_extendqisi2
 473:bluetooth_rxtx.c **** 		requested_mode = MODE_BT_FOLLOW;
 2320              		.loc 1 473 36 view .LVU815
 2321 03e6 42EA0122 		orr	r2, r2, r1, lsl #8
ARM GAS  /tmp/ccwF1FQu.s 			page 91


 473:bluetooth_rxtx.c **** 		requested_mode = MODE_BT_FOLLOW;
 2322              		.loc 1 473 19 view .LVU816
 2323 03ea 9449     		ldr	r1, .L246+12
 2324 03ec 0A80     		strh	r2, [r1]	@ movhi
 474:bluetooth_rxtx.c **** 		break;
 2325              		.loc 1 474 3 is_stmt 1 view .LVU817
 474:bluetooth_rxtx.c **** 		break;
 2326              		.loc 1 474 18 is_stmt 0 view .LVU818
 2327 03ee 0822     		movs	r2, #8
 2328 03f0 9A74     		strb	r2, [r3, #18]
 475:bluetooth_rxtx.c **** 
 2329              		.loc 1 475 3 is_stmt 1 view .LVU819
 2330              	.LVL220:
 2331              	.L83:
 737:bluetooth_rxtx.c **** 
 2332              		.loc 1 737 1 is_stmt 0 view .LVU820
 2333 03f2 BDE8F088 		pop	{r4, r5, r6, r7, fp, pc}
 2334              	.LVL221:
 2335              	.L97:
 478:bluetooth_rxtx.c **** 		requested_mode = MODE_AFH;
 2336              		.loc 1 478 3 is_stmt 1 view .LVU821
 478:bluetooth_rxtx.c **** 		requested_mode = MODE_AFH;
 2337              		.loc 1 478 12 is_stmt 0 view .LVU822
 2338 03f6 0522     		movs	r2, #5
 2339              	.LVL222:
 478:bluetooth_rxtx.c **** 		requested_mode = MODE_AFH;
 2340              		.loc 1 478 12 view .LVU823
 2341 03f8 8E4B     		ldr	r3, .L246+4
 2342 03fa 9149     		ldr	r1, .L246+16
 2343              	.LVL223:
 478:bluetooth_rxtx.c **** 		requested_mode = MODE_AFH;
 2344              		.loc 1 478 12 view .LVU824
 2345 03fc 9A72     		strb	r2, [r3, #10]
 479:bluetooth_rxtx.c **** 
 2346              		.loc 1 479 3 is_stmt 1 view .LVU825
 479:bluetooth_rxtx.c **** 
 2347              		.loc 1 479 18 is_stmt 0 view .LVU826
 2348 03fe 0E22     		movs	r2, #14
 2349 0400 9A74     		strb	r2, [r3, #18]
 481:bluetooth_rxtx.c **** 			afh_map[i] = 0;
 2350              		.loc 1 481 3 is_stmt 1 view .LVU827
 2351              	.LBB23:
 481:bluetooth_rxtx.c **** 			afh_map[i] = 0;
 2352              		.loc 1 481 7 view .LVU828
 2353              	.LVL224:
 481:bluetooth_rxtx.c **** 			afh_map[i] = 0;
 2354              		.loc 1 481 16 view .LVU829
 481:bluetooth_rxtx.c **** 			afh_map[i] = 0;
 2355              		.loc 1 481 11 is_stmt 0 view .LVU830
 2356 0402 0023     		movs	r3, #0
 482:bluetooth_rxtx.c **** 		}
 2357              		.loc 1 482 15 view .LVU831
 2358 0404 1A46     		mov	r2, r3
 2359              	.LVL225:
 2360              	.L171:
 482:bluetooth_rxtx.c **** 		}
 2361              		.loc 1 482 4 is_stmt 1 discriminator 3 view .LVU832
ARM GAS  /tmp/ccwF1FQu.s 			page 92


 481:bluetooth_rxtx.c **** 			afh_map[i] = 0;
 2362              		.loc 1 481 25 is_stmt 0 discriminator 3 view .LVU833
 2363 0406 0133     		adds	r3, r3, #1
 2364              	.LVL226:
 481:bluetooth_rxtx.c **** 			afh_map[i] = 0;
 2365              		.loc 1 481 3 discriminator 3 view .LVU834
 2366 0408 0A2B     		cmp	r3, #10
 482:bluetooth_rxtx.c **** 		}
 2367              		.loc 1 482 15 discriminator 3 view .LVU835
 2368 040a 01F8012B 		strb	r2, [r1], #1
 481:bluetooth_rxtx.c **** 			afh_map[i] = 0;
 2369              		.loc 1 481 24 is_stmt 1 discriminator 3 view .LVU836
 2370              	.LVL227:
 481:bluetooth_rxtx.c **** 			afh_map[i] = 0;
 2371              		.loc 1 481 16 discriminator 3 view .LVU837
 481:bluetooth_rxtx.c **** 			afh_map[i] = 0;
 2372              		.loc 1 481 3 is_stmt 0 discriminator 3 view .LVU838
 2373 040e FAD1     		bne	.L171
 2374              	.LBE23:
 484:bluetooth_rxtx.c **** 		afh_enabled = 1;
 2375              		.loc 1 484 3 is_stmt 1 view .LVU839
 485:bluetooth_rxtx.c **** 		break;
 2376              		.loc 1 485 15 is_stmt 0 view .LVU840
 2377 0410 0120     		movs	r0, #1
 2378              	.LVL228:
 484:bluetooth_rxtx.c **** 		afh_enabled = 1;
 2379              		.loc 1 484 17 view .LVU841
 2380 0412 8C4B     		ldr	r3, .L246+20
 2381              	.LVL229:
 484:bluetooth_rxtx.c **** 		afh_enabled = 1;
 2382              		.loc 1 484 17 view .LVU842
 2383 0414 1A70     		strb	r2, [r3]
 485:bluetooth_rxtx.c **** 		break;
 2384              		.loc 1 485 3 is_stmt 1 view .LVU843
 485:bluetooth_rxtx.c **** 		break;
 2385              		.loc 1 485 15 is_stmt 0 view .LVU844
 2386 0416 8C4B     		ldr	r3, .L246+24
 2387 0418 1870     		strb	r0, [r3]
 486:bluetooth_rxtx.c **** 
 2388              		.loc 1 486 3 is_stmt 1 view .LVU845
 2389 041a EAE7     		b	.L83
 2390              	.LVL230:
 2391              	.L96:
 489:bluetooth_rxtx.c **** 		break;
 2392              		.loc 1 489 3 view .LVU846
 489:bluetooth_rxtx.c **** 		break;
 2393              		.loc 1 489 10 is_stmt 0 view .LVU847
 2394 041c 0120     		movs	r0, #1
 2395              	.LVL231:
 489:bluetooth_rxtx.c **** 		break;
 2396              		.loc 1 489 10 view .LVU848
 2397 041e 854B     		ldr	r3, .L246+4
 2398 0420 D872     		strb	r0, [r3, #11]
 490:bluetooth_rxtx.c **** 
 2399              		.loc 1 490 3 is_stmt 1 view .LVU849
 2400 0422 E6E7     		b	.L83
 2401              	.LVL232:
ARM GAS  /tmp/ccwF1FQu.s 			page 93


 2402              	.L117:
 493:bluetooth_rxtx.c **** 		clkn = clock;
 2403              		.loc 1 493 3 view .LVU850
 2404 0424 1268     		ldr	r2, [r2]	@ unaligned
 2405              	.LVL233:
 494:bluetooth_rxtx.c **** 		cs_threshold_calc_and_set(channel);
 2406              		.loc 1 494 3 view .LVU851
 494:bluetooth_rxtx.c **** 		cs_threshold_calc_and_set(channel);
 2407              		.loc 1 494 8 is_stmt 0 view .LVU852
 2408 0426 894B     		ldr	r3, .L246+28
 2409 0428 1A60     		str	r2, [r3]
 495:bluetooth_rxtx.c **** 		break;
 2410              		.loc 1 495 3 is_stmt 1 view .LVU853
 2411 042a 5FE7     		b	.L230
 2412              	.LVL234:
 2413              	.L106:
 495:bluetooth_rxtx.c **** 		break;
 2414              		.loc 1 495 3 is_stmt 0 view .LVU854
 2415 042c 8449     		ldr	r1, .L246+16
 2416              	.LVL235:
 495:bluetooth_rxtx.c **** 		break;
 2417              		.loc 1 495 3 view .LVU855
 2418 042e 531E     		subs	r3, r2, #1
 2419 0430 0935     		adds	r5, r5, #9
 2420              	.LVL236:
 2421              	.L172:
 2422              	.LBB24:
 500:bluetooth_rxtx.c **** 		}
